
kernel.elf:     file format elf32-littlearm


Disassembly of section .start_sec:

00010000 <_start>:
   10000:	e59f1030 	ldr	r1, [pc, #48]	; 10038 <jump_stack+0x10>
   10004:	e59f2030 	ldr	r2, [pc, #48]	; 1003c <jump_stack+0x14>
   10008:	e3a03000 	mov	r3, #0
   1000c:	e1510002 	cmp	r1, r2
   10010:	b8a10008 	stmialt	r1!, {r3}
   10014:	bafffffc 	blt	1000c <_start+0xc>
   10018:	e32ff0d3 	msr	CPSR_fsxc, #211	; 0xd3
   1001c:	e59fd01c 	ldr	sp, [pc, #28]	; 10040 <jump_stack+0x18>
   10020:	eb000104 	bl	10438 <start>
   10024:	eafffffe 	b	10024 <_start+0x24>

00010028 <jump_stack>:
   10028:	e1a0000d 	mov	r0, sp
   1002c:	e2800102 	add	r0, r0, #-2147483648	; 0x80000000
   10030:	e1a0d000 	mov	sp, r0
   10034:	e1a0f00e 	mov	pc, lr
   10038:	00010620 	.word	0x00010620
   1003c:	00019000 	.word	0x00019000
   10040:	00012000 	.word	0x00012000

00010044 <_uart_putc>:
#include "memlayout.h"

static int mmu_on = 0;

void _uart_putc(int c)
{
   10044:	e52db004 	push	{fp}		; (str fp, [sp, #-4]!)
   10048:	e28db000 	add	fp, sp, #0
   1004c:	e24dd014 	sub	sp, sp, #20
   10050:	e50b0010 	str	r0, [fp, #-16]
    volatile uint8 * uart0;
    if (!mmu_on)
   10054:	e3003620 	movw	r3, #1568	; 0x620
   10058:	e3403001 	movt	r3, #1
   1005c:	e5933000 	ldr	r3, [r3]
   10060:	e3530000 	cmp	r3, #0
   10064:	1a000003 	bne	10078 <_uart_putc+0x34>
    	uart0 = (uint8 *)UART0;
   10068:	e3a03a09 	mov	r3, #36864	; 0x9000
   1006c:	e3413000 	movt	r3, #4096	; 0x1000
   10070:	e50b3008 	str	r3, [fp, #-8]
   10074:	ea000002 	b	10084 <_uart_putc+0x40>
    else
    	uart0 = (uint8 *)(P2V(UART0));
   10078:	e3a03a09 	mov	r3, #36864	; 0x9000
   1007c:	e3493000 	movt	r3, #36864	; 0x9000
   10080:	e50b3008 	str	r3, [fp, #-8]

    *uart0 = c;
   10084:	e51b3010 	ldr	r3, [fp, #-16]
   10088:	e6ef2073 	uxtb	r2, r3
   1008c:	e51b3008 	ldr	r3, [fp, #-8]
   10090:	e5c32000 	strb	r2, [r3]
}
   10094:	e28bd000 	add	sp, fp, #0
   10098:	e8bd0800 	pop	{fp}
   1009c:	e12fff1e 	bx	lr

000100a0 <_puts>:


void _puts (char *s)
{
   100a0:	e92d4800 	push	{fp, lr}
   100a4:	e28db004 	add	fp, sp, #4
   100a8:	e24dd008 	sub	sp, sp, #8
   100ac:	e50b0008 	str	r0, [fp, #-8]
    while (*s != '\0') {
   100b0:	ea000006 	b	100d0 <_puts+0x30>
        _uart_putc(*s);
   100b4:	e51b3008 	ldr	r3, [fp, #-8]
   100b8:	e5d33000 	ldrb	r3, [r3]
   100bc:	e1a00003 	mov	r0, r3
   100c0:	ebffffdf 	bl	10044 <_uart_putc>
        s++;
   100c4:	e51b3008 	ldr	r3, [fp, #-8]
   100c8:	e2833001 	add	r3, r3, #1
   100cc:	e50b3008 	str	r3, [fp, #-8]
}


void _puts (char *s)
{
    while (*s != '\0') {
   100d0:	e51b3008 	ldr	r3, [fp, #-8]
   100d4:	e5d33000 	ldrb	r3, [r3]
   100d8:	e3530000 	cmp	r3, #0
   100dc:	1afffff4 	bne	100b4 <_puts+0x14>
        _uart_putc(*s);
        s++;
    }
}
   100e0:	e24bd004 	sub	sp, fp, #4
   100e4:	e8bd8800 	pop	{fp, pc}

000100e8 <_putint>:

void _putint (char *prefix, uint val, char* suffix)
{
   100e8:	e92d4800 	push	{fp, lr}
   100ec:	e28db004 	add	fp, sp, #4
   100f0:	e24dd018 	sub	sp, sp, #24
   100f4:	e50b0010 	str	r0, [fp, #-16]
   100f8:	e50b1014 	str	r1, [fp, #-20]	; 0xffffffec
   100fc:	e50b2018 	str	r2, [fp, #-24]	; 0xffffffe8
    char* arr = "0123456789ABCDEF";
   10100:	e3003538 	movw	r3, #1336	; 0x538
   10104:	e3403001 	movt	r3, #1
   10108:	e50b300c 	str	r3, [fp, #-12]
    int idx;

    if (prefix) {
   1010c:	e51b3010 	ldr	r3, [fp, #-16]
   10110:	e3530000 	cmp	r3, #0
   10114:	0a000001 	beq	10120 <_putint+0x38>
        _puts(prefix);
   10118:	e51b0010 	ldr	r0, [fp, #-16]
   1011c:	ebffffdf 	bl	100a0 <_puts>
    }

    for (idx = sizeof(val) * 8 - 4; idx >= 0; idx -= 4) {
   10120:	e3a0301c 	mov	r3, #28
   10124:	e50b3008 	str	r3, [fp, #-8]
   10128:	ea00000b 	b	1015c <_putint+0x74>
        _uart_putc(arr[(val >> idx) & 0x0F]);
   1012c:	e51b2014 	ldr	r2, [fp, #-20]	; 0xffffffec
   10130:	e51b3008 	ldr	r3, [fp, #-8]
   10134:	e1a03332 	lsr	r3, r2, r3
   10138:	e203300f 	and	r3, r3, #15
   1013c:	e51b200c 	ldr	r2, [fp, #-12]
   10140:	e0823003 	add	r3, r2, r3
   10144:	e5d33000 	ldrb	r3, [r3]
   10148:	e1a00003 	mov	r0, r3
   1014c:	ebffffbc 	bl	10044 <_uart_putc>

    if (prefix) {
        _puts(prefix);
    }

    for (idx = sizeof(val) * 8 - 4; idx >= 0; idx -= 4) {
   10150:	e51b3008 	ldr	r3, [fp, #-8]
   10154:	e2433004 	sub	r3, r3, #4
   10158:	e50b3008 	str	r3, [fp, #-8]
   1015c:	e51b3008 	ldr	r3, [fp, #-8]
   10160:	e3530000 	cmp	r3, #0
   10164:	aafffff0 	bge	1012c <_putint+0x44>
        _uart_putc(arr[(val >> idx) & 0x0F]);
    }

    if (suffix) {
   10168:	e51b3018 	ldr	r3, [fp, #-24]	; 0xffffffe8
   1016c:	e3530000 	cmp	r3, #0
   10170:	0a000001 	beq	1017c <_putint+0x94>
        _puts(suffix);
   10174:	e51b0018 	ldr	r0, [fp, #-24]	; 0xffffffe8
   10178:	ebffffc8 	bl	100a0 <_puts>
    }
}
   1017c:	e24bd004 	sub	sp, fp, #4
   10180:	e8bd8800 	pop	{fp, pc}

00010184 <get_pde>:
uint32 *user_pgtbl = &_user_pgtbl;

#define PDE_SHIFT 20

uint32 get_pde (uint32 virt)
{
   10184:	e52db004 	push	{fp}		; (str fp, [sp, #-4]!)
   10188:	e28db000 	add	fp, sp, #0
   1018c:	e24dd00c 	sub	sp, sp, #12
   10190:	e50b0008 	str	r0, [fp, #-8]
    virt >>= PDE_SHIFT;
   10194:	e51b3008 	ldr	r3, [fp, #-8]
   10198:	e1a03a23 	lsr	r3, r3, #20
   1019c:	e50b3008 	str	r3, [fp, #-8]
    return kernel_pgtbl[virt];
   101a0:	e3003618 	movw	r3, #1560	; 0x618
   101a4:	e3403001 	movt	r3, #1
   101a8:	e5932000 	ldr	r2, [r3]
   101ac:	e51b3008 	ldr	r3, [fp, #-8]
   101b0:	e1a03103 	lsl	r3, r3, #2
   101b4:	e0823003 	add	r3, r2, r3
   101b8:	e5933000 	ldr	r3, [r3]
}
   101bc:	e1a00003 	mov	r0, r3
   101c0:	e28bd000 	add	sp, fp, #0
   101c4:	e8bd0800 	pop	{fp}
   101c8:	e12fff1e 	bx	lr

000101cc <set_bootpgtbl>:

// setup the boot page table: dev_mem whether it is device memory
void set_bootpgtbl (uint32 virt, uint32 phy, uint len, int dev_mem )
{
   101cc:	e52db004 	push	{fp}		; (str fp, [sp, #-4]!)
   101d0:	e28db000 	add	fp, sp, #0
   101d4:	e24dd01c 	sub	sp, sp, #28
   101d8:	e50b0010 	str	r0, [fp, #-16]
   101dc:	e50b1014 	str	r1, [fp, #-20]	; 0xffffffec
   101e0:	e50b2018 	str	r2, [fp, #-24]	; 0xffffffe8
   101e4:	e50b301c 	str	r3, [fp, #-28]	; 0xffffffe4
    uint32	pde;
    int		idx;

    // convert all the parameters to indexes
    virt >>= PDE_SHIFT;
   101e8:	e51b3010 	ldr	r3, [fp, #-16]
   101ec:	e1a03a23 	lsr	r3, r3, #20
   101f0:	e50b3010 	str	r3, [fp, #-16]
    phy  >>= PDE_SHIFT;
   101f4:	e51b3014 	ldr	r3, [fp, #-20]	; 0xffffffec
   101f8:	e1a03a23 	lsr	r3, r3, #20
   101fc:	e50b3014 	str	r3, [fp, #-20]	; 0xffffffec
    len  >>= PDE_SHIFT;
   10200:	e51b3018 	ldr	r3, [fp, #-24]	; 0xffffffe8
   10204:	e1a03a23 	lsr	r3, r3, #20
   10208:	e50b3018 	str	r3, [fp, #-24]	; 0xffffffe8

    for (idx = 0; idx < len; idx++) {
   1020c:	e3a03000 	mov	r3, #0
   10210:	e50b300c 	str	r3, [fp, #-12]
   10214:	ea00002b 	b	102c8 <set_bootpgtbl+0xfc>
        pde = (phy << PDE_SHIFT);
   10218:	e51b3014 	ldr	r3, [fp, #-20]	; 0xffffffec
   1021c:	e1a03a03 	lsl	r3, r3, #20
   10220:	e50b3008 	str	r3, [fp, #-8]

        if (!dev_mem) {
   10224:	e51b301c 	ldr	r3, [fp, #-28]	; 0xffffffe4
   10228:	e3530000 	cmp	r3, #0
   1022c:	1a000004 	bne	10244 <set_bootpgtbl+0x78>
            // normal memory, make it kernel-only, cachable, bufferable
            pde |= (AP_KO << 10) | PE_CACHE | PE_BUF | KPDE_TYPE;
   10230:	e51b3008 	ldr	r3, [fp, #-8]
   10234:	e3833b01 	orr	r3, r3, #1024	; 0x400
   10238:	e383300e 	orr	r3, r3, #14
   1023c:	e50b3008 	str	r3, [fp, #-8]
   10240:	ea000003 	b	10254 <set_bootpgtbl+0x88>
        } else {
            // device memory, make it non-cachable and non-bufferable
            pde |= (AP_KO << 10) | KPDE_TYPE;
   10244:	e51b3008 	ldr	r3, [fp, #-8]
   10248:	e3833b01 	orr	r3, r3, #1024	; 0x400
   1024c:	e3833002 	orr	r3, r3, #2
   10250:	e50b3008 	str	r3, [fp, #-8]
        }

        // use different page table for user/kernel space
        if (virt < NUM_UPDE) {
   10254:	e51b3010 	ldr	r3, [fp, #-16]
   10258:	e35300ff 	cmp	r3, #255	; 0xff
   1025c:	8a000008 	bhi	10284 <set_bootpgtbl+0xb8>
            user_pgtbl[virt] = pde;
   10260:	e300361c 	movw	r3, #1564	; 0x61c
   10264:	e3403001 	movt	r3, #1
   10268:	e5932000 	ldr	r2, [r3]
   1026c:	e51b3010 	ldr	r3, [fp, #-16]
   10270:	e1a03103 	lsl	r3, r3, #2
   10274:	e0823003 	add	r3, r2, r3
   10278:	e51b2008 	ldr	r2, [fp, #-8]
   1027c:	e5832000 	str	r2, [r3]
   10280:	ea000007 	b	102a4 <set_bootpgtbl+0xd8>
        } else {
            kernel_pgtbl[virt] = pde;
   10284:	e3003618 	movw	r3, #1560	; 0x618
   10288:	e3403001 	movt	r3, #1
   1028c:	e5932000 	ldr	r2, [r3]
   10290:	e51b3010 	ldr	r3, [fp, #-16]
   10294:	e1a03103 	lsl	r3, r3, #2
   10298:	e0823003 	add	r3, r2, r3
   1029c:	e51b2008 	ldr	r2, [fp, #-8]
   102a0:	e5832000 	str	r2, [r3]
        }

        virt++;
   102a4:	e51b3010 	ldr	r3, [fp, #-16]
   102a8:	e2833001 	add	r3, r3, #1
   102ac:	e50b3010 	str	r3, [fp, #-16]
        phy++;
   102b0:	e51b3014 	ldr	r3, [fp, #-20]	; 0xffffffec
   102b4:	e2833001 	add	r3, r3, #1
   102b8:	e50b3014 	str	r3, [fp, #-20]	; 0xffffffec
    // convert all the parameters to indexes
    virt >>= PDE_SHIFT;
    phy  >>= PDE_SHIFT;
    len  >>= PDE_SHIFT;

    for (idx = 0; idx < len; idx++) {
   102bc:	e51b300c 	ldr	r3, [fp, #-12]
   102c0:	e2833001 	add	r3, r3, #1
   102c4:	e50b300c 	str	r3, [fp, #-12]
   102c8:	e51b200c 	ldr	r2, [fp, #-12]
   102cc:	e51b3018 	ldr	r3, [fp, #-24]	; 0xffffffe8
   102d0:	e1520003 	cmp	r2, r3
   102d4:	3affffcf 	bcc	10218 <set_bootpgtbl+0x4c>
        }

        virt++;
        phy++;
    }
}
   102d8:	e28bd000 	add	sp, fp, #0
   102dc:	e8bd0800 	pop	{fp}
   102e0:	e12fff1e 	bx	lr

000102e4 <_flush_all>:

static void _flush_all (void)
{
   102e4:	e52db004 	push	{fp}		; (str fp, [sp, #-4]!)
   102e8:	e28db000 	add	fp, sp, #0
   102ec:	e24dd00c 	sub	sp, sp, #12
    uint val = 0;
   102f0:	e3a03000 	mov	r3, #0
   102f4:	e50b3008 	str	r3, [fp, #-8]

    // flush all TLB
    asm("MCR p15, 0, %[r], c8, c7, 0" : :[r]"r" (val):);
   102f8:	e51b3008 	ldr	r3, [fp, #-8]
   102fc:	ee083f17 	mcr	15, 0, r3, cr8, cr7, {0}

    // invalid entire data and instruction cache
    // asm ("MCR p15,0,%[r],c7,c5,0": :[r]"r" (val):);
    // asm ("MCR p15,0,%[r],c7,c6,0": :[r]"r" (val):);
}
   10300:	e28bd000 	add	sp, fp, #0
   10304:	e8bd0800 	pop	{fp}
   10308:	e12fff1e 	bx	lr

0001030c <load_pgtlb>:

void load_pgtlb (uint32* kern_pgtbl, uint32* user_pgtbl)
{
   1030c:	e92d4810 	push	{r4, fp, lr}
   10310:	e28db008 	add	fp, sp, #8
   10314:	e24dd01c 	sub	sp, sp, #28
   10318:	e50b0020 	str	r0, [fp, #-32]	; 0xffffffe0
   1031c:	e50b1024 	str	r1, [fp, #-36]	; 0xffffffdc
    uint	ret;
    char	arch;
    uint	val;

    // read the main id register to make sure we are running on ARMv6
    asm("MRC p15, 0, %[r], c0, c0, 0": [r]"=r" (ret)::);
   10320:	ee104f10 	mrc	15, 0, r4, cr0, cr0, {0}
   10324:	e50b4010 	str	r4, [fp, #-16]

    if (ret >> 24 == 0x41) {
        //_puts ("ARM-based CPU\n");
    }

    arch = (ret >> 16) & 0x0F;
   10328:	e51b3010 	ldr	r3, [fp, #-16]
   1032c:	e1a03823 	lsr	r3, r3, #16
   10330:	e6ef3073 	uxtb	r3, r3
   10334:	e203300f 	and	r3, r3, #15
   10338:	e54b3011 	strb	r3, [fp, #-17]	; 0xffffffef

    if ((arch != 7) && (arch != 0xF)) {
   1033c:	e55b3011 	ldrb	r3, [fp, #-17]	; 0xffffffef
   10340:	e3530007 	cmp	r3, #7
   10344:	0a000005 	beq	10360 <load_pgtlb+0x54>
   10348:	e55b3011 	ldrb	r3, [fp, #-17]	; 0xffffffef
   1034c:	e353000f 	cmp	r3, #15
   10350:	0a000002 	beq	10360 <load_pgtlb+0x54>
        _puts ("need AARM v6 or higher\n");
   10354:	e300054c 	movw	r0, #1356	; 0x54c
   10358:	e3400001 	movt	r0, #1
   1035c:	ebffff4f 	bl	100a0 <_puts>
    // we need to check the cache/tlb etc., but let's skip it for now

    /* xzl -- see trm: "summary of vmsa cp15 register descriptions".
     */

    _puts("going to config domain ...\n");
   10360:	e3000564 	movw	r0, #1380	; 0x564
   10364:	e3400001 	movt	r0, #1
   10368:	ebffff4c 	bl	100a0 <_puts>

    // set domain access control: all domain will be checked for permission
    val = 0x55555555;
   1036c:	e3053555 	movw	r3, #21845	; 0x5555
   10370:	e3453555 	movt	r3, #21845	; 0x5555
   10374:	e50b3018 	str	r3, [fp, #-24]	; 0xffffffe8
    asm("MCR p15, 0, %[v], c3, c0, 0": :[v]"r" (val):);
   10378:	e51b3018 	ldr	r3, [fp, #-24]	; 0xffffffe8
   1037c:	ee033f10 	mcr	15, 0, r3, cr3, cr0, {0}
    // for user space and TTBR1 for kernel space
    /* xzl: set up TTBCR.
     * see trm "selecting between ttbr0 and ttbr1, short-descriptor
     * xslat table format"
     * Note: v7a w/o LAPE uses short descriptor xslat table format */
    val = 32 - UADDR_BITS;
   10380:	e3a03004 	mov	r3, #4
   10384:	e50b3018 	str	r3, [fp, #-24]	; 0xffffffe8
    asm("MCR p15, 0, %[v], c2, c0, 2": :[v]"r" (val):);
   10388:	e51b3018 	ldr	r3, [fp, #-24]	; 0xffffffe8
   1038c:	ee023f50 	mcr	15, 0, r3, cr2, cr0, {2}

    // set the kernel page table
    /* xzl: TTBR1. XXX should be "& 0x00"? */
    val = (uint)kernel_pgtbl | 0x00;
   10390:	e3003618 	movw	r3, #1560	; 0x618
   10394:	e3403001 	movt	r3, #1
   10398:	e5933000 	ldr	r3, [r3]
   1039c:	e50b3018 	str	r3, [fp, #-24]	; 0xffffffe8
    asm("MCR p15, 0, %[v], c2, c0, 1": :[v]"r" (val):);
   103a0:	e51b3018 	ldr	r3, [fp, #-24]	; 0xffffffe8
   103a4:	ee023f30 	mcr	15, 0, r3, cr2, cr0, {1}

    // set the user page table
    /* xzl: TTBR0 */
    val = (uint)user_pgtbl | 0x00;
   103a8:	e51b3024 	ldr	r3, [fp, #-36]	; 0xffffffdc
   103ac:	e50b3018 	str	r3, [fp, #-24]	; 0xffffffe8
    asm("MCR p15, 0, %[v], c2, c0, 0": :[v]"r" (val):);
   103b0:	e51b3018 	ldr	r3, [fp, #-24]	; 0xffffffe8
   103b4:	ee023f10 	mcr	15, 0, r3, cr2, cr0, {0}

    _puts("going to enable mmu ...\n");
   103b8:	e3000580 	movw	r0, #1408	; 0x580
   103bc:	e3400001 	movt	r0, #1
   103c0:	ebffff36 	bl	100a0 <_puts>

    // ok, enable paging using read/modify/write
    /* xzl: SCTLR */
    asm("MRC p15, 0, %[r], c1, c0, 0": [r]"=r" (val)::);
   103c4:	ee114f10 	mrc	15, 0, r4, cr1, cr0, {0}
   103c8:	e50b4018 	str	r4, [fp, #-24]	; 0xffffffe8

    val |= 0x80300D; // enable MMU, cache, write buffer, high vector tbl,
   103cc:	e51b2018 	ldr	r2, [fp, #-24]	; 0xffffffe8
   103d0:	e303300d 	movw	r3, #12301	; 0x300d
   103d4:	e3403080 	movt	r3, #128	; 0x80
   103d8:	e1823003 	orr	r3, r2, r3
   103dc:	e50b3018 	str	r3, [fp, #-24]	; 0xffffffe8
                     // disable subpage
    asm("MCR p15, 0, %[r], c1, c0, 0": :[r]"r" (val):);
   103e0:	e51b3018 	ldr	r3, [fp, #-24]	; 0xffffffe8
   103e4:	ee013f10 	mcr	15, 0, r3, cr1, cr0, {0}
    mmu_on = 1;
   103e8:	e3003620 	movw	r3, #1568	; 0x620
   103ec:	e3403001 	movt	r3, #1
   103f0:	e3a02001 	mov	r2, #1
   103f4:	e5832000 	str	r2, [r3]

    //_puts("going to flush tlb...\n");

    _flush_all();
   103f8:	ebffffb9 	bl	102e4 <_flush_all>
}
   103fc:	e24bd008 	sub	sp, fp, #8
   10400:	e8bd8810 	pop	{r4, fp, pc}

00010404 <clear_bss>:
extern void * edata;
extern void * end;

// clear the BSS section for the main kernel, see kernel.ld
void clear_bss (void)
{
   10404:	e92d4800 	push	{fp, lr}
   10408:	e28db004 	add	fp, sp, #4
    memset(&edata, 0x00, (uint)&end-(uint)&edata);
   1040c:	e3012000 	movw	r2, #4096	; 0x1000
   10410:	e348200b 	movt	r2, #32779	; 0x800b
   10414:	e30b30c4 	movw	r3, #45252	; 0xb0c4
   10418:	e348300a 	movt	r3, #32778	; 0x800a
   1041c:	e0633002 	rsb	r3, r3, r2
   10420:	e30b00c4 	movw	r0, #45252	; 0xb0c4
   10424:	e348000a 	movt	r0, #32778	; 0x800a
   10428:	e3a01000 	mov	r1, #0
   1042c:	e1a02003 	mov	r2, r3
   10430:	eb00003e 	bl	10530 <__memset_veneer>
}
   10434:	e8bd8800 	pop	{fp, pc}

00010438 <start>:

void start (void)
{
   10438:	e92d4800 	push	{fp, lr}
   1043c:	e28db004 	add	fp, sp, #4
   10440:	e24dd008 	sub	sp, sp, #8
	uint32  vectbl;
    _puts("starting xv6 for ARM...\n");
   10444:	e300059c 	movw	r0, #1436	; 0x59c
   10448:	e3400001 	movt	r0, #1
   1044c:	ebffff13 	bl	100a0 <_puts>

    // double map the low memory, required to enable paging
    // we do not map all the physical memory
    set_bootpgtbl(0, 0, INIT_KERNMAP, 0);
   10450:	e3a00000 	mov	r0, #0
   10454:	e3a01000 	mov	r1, #0
   10458:	e3a02601 	mov	r2, #1048576	; 0x100000
   1045c:	e3a03000 	mov	r3, #0
   10460:	ebffff59 	bl	101cc <set_bootpgtbl>
    set_bootpgtbl(KERNBASE, 0, INIT_KERNMAP, 0);
   10464:	e3a00102 	mov	r0, #-2147483648	; 0x80000000
   10468:	e3a01000 	mov	r1, #0
   1046c:	e3a02601 	mov	r2, #1048576	; 0x100000
   10470:	e3a03000 	mov	r3, #0
   10474:	ebffff54 	bl	101cc <set_bootpgtbl>

    // vector table is in the middle of first 1MB (0xF000)
    vectbl = P2V_WO (VEC_TBL & PDE_MASK);
   10478:	e3a03000 	mov	r3, #0
   1047c:	e348300f 	movt	r3, #32783	; 0x800f
   10480:	e50b3008 	str	r3, [fp, #-8]

    if (vectbl <= (uint)&end) {
   10484:	e3013000 	movw	r3, #4096	; 0x1000
   10488:	e348300b 	movt	r3, #32779	; 0x800b
   1048c:	e51b2008 	ldr	r2, [fp, #-8]
   10490:	e1520003 	cmp	r2, r3
   10494:	8a000002 	bhi	104a4 <start+0x6c>
        cprintf ("error: vector table overlaps kernel\n");
   10498:	e30005b8 	movw	r0, #1464	; 0x5b8
   1049c:	e3400001 	movt	r0, #1
   104a0:	eb00001e 	bl	10520 <__cprintf_veneer>
    }

    set_bootpgtbl(VEC_TBL, 0, 1 << PDE_SHIFT, 0);
   104a4:	e3a00000 	mov	r0, #0
   104a8:	e34f0fff 	movt	r0, #65535	; 0xffff
   104ac:	e3a01000 	mov	r1, #0
   104b0:	e3a02601 	mov	r2, #1048576	; 0x100000
   104b4:	e3a03000 	mov	r3, #0
   104b8:	ebffff43 	bl	101cc <set_bootpgtbl>
    set_bootpgtbl(KERNBASE+DEVBASE, DEVBASE, DEV_MEM_SZ, 1);
   104bc:	e3a00209 	mov	r0, #-1879048192	; 0x90000000
   104c0:	e3a01201 	mov	r1, #268435456	; 0x10000000
   104c4:	e3a0240f 	mov	r2, #251658240	; 0xf000000
   104c8:	e3a03001 	mov	r3, #1
   104cc:	ebffff3e 	bl	101cc <set_bootpgtbl>

    _puts("going to load kern pgtable...\n");
   104d0:	e30005e0 	movw	r0, #1504	; 0x5e0
   104d4:	e3400001 	movt	r0, #1
   104d8:	ebfffef0 	bl	100a0 <_puts>
    load_pgtlb (kernel_pgtbl, user_pgtbl);
   104dc:	e3003618 	movw	r3, #1560	; 0x618
   104e0:	e3403001 	movt	r3, #1
   104e4:	e5932000 	ldr	r2, [r3]
   104e8:	e300361c 	movw	r3, #1564	; 0x61c
   104ec:	e3403001 	movt	r3, #1
   104f0:	e5933000 	ldr	r3, [r3]
   104f4:	e1a00002 	mov	r0, r2
   104f8:	e1a01003 	mov	r1, r3
   104fc:	ebffff82 	bl	1030c <load_pgtlb>
    jump_stack ();
   10500:	ebfffec8 	bl	10028 <jump_stack>

    _puts("load kern pgtable done\n");
   10504:	e3000600 	movw	r0, #1536	; 0x600
   10508:	e3400001 	movt	r0, #1
   1050c:	ebfffee3 	bl	100a0 <_puts>

    // We can now call normal kernel functions at high memory
    clear_bss ();
   10510:	ebffffbb 	bl	10404 <clear_bss>

    kmain ();
   10514:	eb000003 	bl	10528 <__kmain_veneer>
}
   10518:	e24bd004 	sub	sp, fp, #4
   1051c:	e8bd8800 	pop	{fp, pc}

00010520 <__cprintf_veneer>:
   10520:	e51ff004 	ldr	pc, [pc, #-4]	; 10524 <__cprintf_veneer+0x4>
   10524:	80021990 	.word	0x80021990

00010528 <__kmain_veneer>:
   10528:	e51ff004 	ldr	pc, [pc, #-4]	; 1052c <__kmain_veneer+0x4>
   1052c:	8002499c 	.word	0x8002499c

00010530 <__memset_veneer>:
   10530:	e51ff004 	ldr	pc, [pc, #-4]	; 10534 <__memset_veneer+0x4>
   10534:	80020000 	.word	0x80020000

00010538 <.LC0>:
   10538:	33323130 	.word	0x33323130
   1053c:	37363534 	.word	0x37363534
   10540:	42413938 	.word	0x42413938
   10544:	46454443 	.word	0x46454443
   10548:	00000000 	.word	0x00000000

0001054c <.LC1>:
   1054c:	6465656e 	.word	0x6465656e
   10550:	52414120 	.word	0x52414120
   10554:	3676204d 	.word	0x3676204d
   10558:	20726f20 	.word	0x20726f20
   1055c:	68676968 	.word	0x68676968
   10560:	000a7265 	.word	0x000a7265

00010564 <.LC2>:
   10564:	6e696f67 	.word	0x6e696f67
   10568:	6f742067 	.word	0x6f742067
   1056c:	6e6f6320 	.word	0x6e6f6320
   10570:	20676966 	.word	0x20676966
   10574:	616d6f64 	.word	0x616d6f64
   10578:	2e206e69 	.word	0x2e206e69
   1057c:	000a2e2e 	.word	0x000a2e2e

00010580 <.LC3>:
   10580:	6e696f67 	.word	0x6e696f67
   10584:	6f742067 	.word	0x6f742067
   10588:	616e6520 	.word	0x616e6520
   1058c:	20656c62 	.word	0x20656c62
   10590:	20756d6d 	.word	0x20756d6d
   10594:	0a2e2e2e 	.word	0x0a2e2e2e
   10598:	00000000 	.word	0x00000000

0001059c <.LC4>:
   1059c:	72617473 	.word	0x72617473
   105a0:	676e6974 	.word	0x676e6974
   105a4:	36767820 	.word	0x36767820
   105a8:	726f6620 	.word	0x726f6620
   105ac:	4d524120 	.word	0x4d524120
   105b0:	0a2e2e2e 	.word	0x0a2e2e2e
   105b4:	00000000 	.word	0x00000000

000105b8 <.LC5>:
   105b8:	6f727265 	.word	0x6f727265
   105bc:	76203a72 	.word	0x76203a72
   105c0:	6f746365 	.word	0x6f746365
   105c4:	61742072 	.word	0x61742072
   105c8:	20656c62 	.word	0x20656c62
   105cc:	7265766f 	.word	0x7265766f
   105d0:	7370616c 	.word	0x7370616c
   105d4:	72656b20 	.word	0x72656b20
   105d8:	0a6c656e 	.word	0x0a6c656e
   105dc:	00000000 	.word	0x00000000

000105e0 <.LC6>:
   105e0:	6e696f67 	.word	0x6e696f67
   105e4:	6f742067 	.word	0x6f742067
   105e8:	616f6c20 	.word	0x616f6c20
   105ec:	656b2064 	.word	0x656b2064
   105f0:	70206e72 	.word	0x70206e72
   105f4:	62617467 	.word	0x62617467
   105f8:	2e2e656c 	.word	0x2e2e656c
   105fc:	00000a2e 	.word	0x00000a2e

00010600 <.LC7>:
   10600:	64616f6c 	.word	0x64616f6c
   10604:	72656b20 	.word	0x72656b20
   10608:	6770206e 	.word	0x6770206e
   1060c:	6c626174 	.word	0x6c626174
   10610:	6f642065 	.word	0x6f642065
   10614:	000a656e 	.word	0x000a656e

00010618 <kernel_pgtbl>:
   10618:	00014000                                .@..

0001061c <user_pgtbl>:
   1061c:	00018000                                ....

00010620 <edata_entry>:
	...

00012000 <svc_stktop>:
	...

00014000 <_kernel_pgtbl>:
	...

00018000 <_user_pgtbl>:
	...

Disassembly of section .text:

80020000 <memset>:
#include "types.h"
#include "arm.h"


void* memset(void *dst, int v, int n)
{
80020000:	e52db004 	push	{fp}		; (str fp, [sp, #-4]!)
80020004:	e28db000 	add	fp, sp, #0
80020008:	e24dd024 	sub	sp, sp, #36	; 0x24
8002000c:	e50b0018 	str	r0, [fp, #-24]	; 0xffffffe8
80020010:	e50b101c 	str	r1, [fp, #-28]	; 0xffffffe4
80020014:	e50b2020 	str	r2, [fp, #-32]	; 0xffffffe0
    uint8	*p;
    uint8	c;
    uint32	val;
    uint32	*p4;

    p   = dst;
80020018:	e51b3018 	ldr	r3, [fp, #-24]	; 0xffffffe8
8002001c:	e50b3008 	str	r3, [fp, #-8]
    c   = v & 0xff;
80020020:	e51b301c 	ldr	r3, [fp, #-28]	; 0xffffffe4
80020024:	e54b300d 	strb	r3, [fp, #-13]
    val = (c << 24) | (c << 16) | (c << 8) | c;
80020028:	e55b300d 	ldrb	r3, [fp, #-13]
8002002c:	e1a02c03 	lsl	r2, r3, #24
80020030:	e55b300d 	ldrb	r3, [fp, #-13]
80020034:	e1a03803 	lsl	r3, r3, #16
80020038:	e1822003 	orr	r2, r2, r3
8002003c:	e55b300d 	ldrb	r3, [fp, #-13]
80020040:	e1a03403 	lsl	r3, r3, #8
80020044:	e1822003 	orr	r2, r2, r3
80020048:	e55b300d 	ldrb	r3, [fp, #-13]
8002004c:	e1823003 	orr	r3, r2, r3
80020050:	e50b3014 	str	r3, [fp, #-20]	; 0xffffffec

    // set bytes before whole uint32
    for (; (n > 0) && ((uint)p % 4); n--, p++){
80020054:	ea000008 	b	8002007c <memset+0x7c>
        *p = c;
80020058:	e51b3008 	ldr	r3, [fp, #-8]
8002005c:	e55b200d 	ldrb	r2, [fp, #-13]
80020060:	e5c32000 	strb	r2, [r3]
    p   = dst;
    c   = v & 0xff;
    val = (c << 24) | (c << 16) | (c << 8) | c;

    // set bytes before whole uint32
    for (; (n > 0) && ((uint)p % 4); n--, p++){
80020064:	e51b3020 	ldr	r3, [fp, #-32]	; 0xffffffe0
80020068:	e2433001 	sub	r3, r3, #1
8002006c:	e50b3020 	str	r3, [fp, #-32]	; 0xffffffe0
80020070:	e51b3008 	ldr	r3, [fp, #-8]
80020074:	e2833001 	add	r3, r3, #1
80020078:	e50b3008 	str	r3, [fp, #-8]
8002007c:	e51b3020 	ldr	r3, [fp, #-32]	; 0xffffffe0
80020080:	e3530000 	cmp	r3, #0
80020084:	da000003 	ble	80020098 <memset+0x98>
80020088:	e51b3008 	ldr	r3, [fp, #-8]
8002008c:	e2033003 	and	r3, r3, #3
80020090:	e3530000 	cmp	r3, #0
80020094:	1affffef 	bne	80020058 <memset+0x58>
        *p = c;
    }

    // set memory 4 bytes a time
    p4 = (uint*)p;
80020098:	e51b3008 	ldr	r3, [fp, #-8]
8002009c:	e50b300c 	str	r3, [fp, #-12]

    for (; n >= 4; n -= 4, p4++) {
800200a0:	ea000008 	b	800200c8 <memset+0xc8>
        *p4 = val;
800200a4:	e51b300c 	ldr	r3, [fp, #-12]
800200a8:	e51b2014 	ldr	r2, [fp, #-20]	; 0xffffffec
800200ac:	e5832000 	str	r2, [r3]
    }

    // set memory 4 bytes a time
    p4 = (uint*)p;

    for (; n >= 4; n -= 4, p4++) {
800200b0:	e51b3020 	ldr	r3, [fp, #-32]	; 0xffffffe0
800200b4:	e2433004 	sub	r3, r3, #4
800200b8:	e50b3020 	str	r3, [fp, #-32]	; 0xffffffe0
800200bc:	e51b300c 	ldr	r3, [fp, #-12]
800200c0:	e2833004 	add	r3, r3, #4
800200c4:	e50b300c 	str	r3, [fp, #-12]
800200c8:	e51b3020 	ldr	r3, [fp, #-32]	; 0xffffffe0
800200cc:	e3530003 	cmp	r3, #3
800200d0:	cafffff3 	bgt	800200a4 <memset+0xa4>
        *p4 = val;
    }

    // set leftover one byte a time
    p = (uint8*)p4;
800200d4:	e51b300c 	ldr	r3, [fp, #-12]
800200d8:	e50b3008 	str	r3, [fp, #-8]

    for (; n > 0; n--, p++) {
800200dc:	ea000008 	b	80020104 <memset+0x104>
        *p = c;
800200e0:	e51b3008 	ldr	r3, [fp, #-8]
800200e4:	e55b200d 	ldrb	r2, [fp, #-13]
800200e8:	e5c32000 	strb	r2, [r3]
    }

    // set leftover one byte a time
    p = (uint8*)p4;

    for (; n > 0; n--, p++) {
800200ec:	e51b3020 	ldr	r3, [fp, #-32]	; 0xffffffe0
800200f0:	e2433001 	sub	r3, r3, #1
800200f4:	e50b3020 	str	r3, [fp, #-32]	; 0xffffffe0
800200f8:	e51b3008 	ldr	r3, [fp, #-8]
800200fc:	e2833001 	add	r3, r3, #1
80020100:	e50b3008 	str	r3, [fp, #-8]
80020104:	e51b3020 	ldr	r3, [fp, #-32]	; 0xffffffe0
80020108:	e3530000 	cmp	r3, #0
8002010c:	cafffff3 	bgt	800200e0 <memset+0xe0>
        *p = c;
    }

    return dst;
80020110:	e51b3018 	ldr	r3, [fp, #-24]	; 0xffffffe8
}
80020114:	e1a00003 	mov	r0, r3
80020118:	e28bd000 	add	sp, fp, #0
8002011c:	e8bd0800 	pop	{fp}
80020120:	e12fff1e 	bx	lr

80020124 <memcmp>:


int memcmp(const void *v1, const void *v2, uint n)
{
80020124:	e52db004 	push	{fp}		; (str fp, [sp, #-4]!)
80020128:	e28db000 	add	fp, sp, #0
8002012c:	e24dd01c 	sub	sp, sp, #28
80020130:	e50b0010 	str	r0, [fp, #-16]
80020134:	e50b1014 	str	r1, [fp, #-20]	; 0xffffffec
80020138:	e50b2018 	str	r2, [fp, #-24]	; 0xffffffe8
    const uchar *s1, *s2;

    s1 = v1;
8002013c:	e51b3010 	ldr	r3, [fp, #-16]
80020140:	e50b3008 	str	r3, [fp, #-8]
    s2 = v2;
80020144:	e51b3014 	ldr	r3, [fp, #-20]	; 0xffffffec
80020148:	e50b300c 	str	r3, [fp, #-12]

    while(n-- > 0){
8002014c:	ea000012 	b	8002019c <memcmp+0x78>
        if(*s1 != *s2) {
80020150:	e51b3008 	ldr	r3, [fp, #-8]
80020154:	e5d32000 	ldrb	r2, [r3]
80020158:	e51b300c 	ldr	r3, [fp, #-12]
8002015c:	e5d33000 	ldrb	r3, [r3]
80020160:	e1520003 	cmp	r2, r3
80020164:	0a000006 	beq	80020184 <memcmp+0x60>
            return *s1 - *s2;
80020168:	e51b3008 	ldr	r3, [fp, #-8]
8002016c:	e5d33000 	ldrb	r3, [r3]
80020170:	e1a02003 	mov	r2, r3
80020174:	e51b300c 	ldr	r3, [fp, #-12]
80020178:	e5d33000 	ldrb	r3, [r3]
8002017c:	e0633002 	rsb	r3, r3, r2
80020180:	ea000010 	b	800201c8 <memcmp+0xa4>
        }

        s1++, s2++;
80020184:	e51b3008 	ldr	r3, [fp, #-8]
80020188:	e2833001 	add	r3, r3, #1
8002018c:	e50b3008 	str	r3, [fp, #-8]
80020190:	e51b300c 	ldr	r3, [fp, #-12]
80020194:	e2833001 	add	r3, r3, #1
80020198:	e50b300c 	str	r3, [fp, #-12]
    const uchar *s1, *s2;

    s1 = v1;
    s2 = v2;

    while(n-- > 0){
8002019c:	e51b3018 	ldr	r3, [fp, #-24]	; 0xffffffe8
800201a0:	e3530000 	cmp	r3, #0
800201a4:	03a03000 	moveq	r3, #0
800201a8:	13a03001 	movne	r3, #1
800201ac:	e6ef3073 	uxtb	r3, r3
800201b0:	e51b2018 	ldr	r2, [fp, #-24]	; 0xffffffe8
800201b4:	e2422001 	sub	r2, r2, #1
800201b8:	e50b2018 	str	r2, [fp, #-24]	; 0xffffffe8
800201bc:	e3530000 	cmp	r3, #0
800201c0:	1affffe2 	bne	80020150 <memcmp+0x2c>
        }

        s1++, s2++;
    }

    return 0;
800201c4:	e3a03000 	mov	r3, #0
}
800201c8:	e1a00003 	mov	r0, r3
800201cc:	e28bd000 	add	sp, fp, #0
800201d0:	e8bd0800 	pop	{fp}
800201d4:	e12fff1e 	bx	lr

800201d8 <memmove>:

void* memmove(void *dst, const void *src, uint n)
{
800201d8:	e52db004 	push	{fp}		; (str fp, [sp, #-4]!)
800201dc:	e28db000 	add	fp, sp, #0
800201e0:	e24dd01c 	sub	sp, sp, #28
800201e4:	e50b0010 	str	r0, [fp, #-16]
800201e8:	e50b1014 	str	r1, [fp, #-20]	; 0xffffffec
800201ec:	e50b2018 	str	r2, [fp, #-24]	; 0xffffffe8
    const char *s;
    char *d;

    s = src;
800201f0:	e51b3014 	ldr	r3, [fp, #-20]	; 0xffffffec
800201f4:	e50b3008 	str	r3, [fp, #-8]
    d = dst;
800201f8:	e51b3010 	ldr	r3, [fp, #-16]
800201fc:	e50b300c 	str	r3, [fp, #-12]

    if(s < d && s + n > d){
80020200:	e51b2008 	ldr	r2, [fp, #-8]
80020204:	e51b300c 	ldr	r3, [fp, #-12]
80020208:	e1520003 	cmp	r2, r3
8002020c:	2a00002e 	bcs	800202cc <memmove+0xf4>
80020210:	e51b2008 	ldr	r2, [fp, #-8]
80020214:	e51b3018 	ldr	r3, [fp, #-24]	; 0xffffffe8
80020218:	e0822003 	add	r2, r2, r3
8002021c:	e51b300c 	ldr	r3, [fp, #-12]
80020220:	e1520003 	cmp	r2, r3
80020224:	9a000028 	bls	800202cc <memmove+0xf4>
        s += n;
80020228:	e51b2008 	ldr	r2, [fp, #-8]
8002022c:	e51b3018 	ldr	r3, [fp, #-24]	; 0xffffffe8
80020230:	e0823003 	add	r3, r2, r3
80020234:	e50b3008 	str	r3, [fp, #-8]
        d += n;
80020238:	e51b200c 	ldr	r2, [fp, #-12]
8002023c:	e51b3018 	ldr	r3, [fp, #-24]	; 0xffffffe8
80020240:	e0823003 	add	r3, r2, r3
80020244:	e50b300c 	str	r3, [fp, #-12]

        while(n-- > 0) {
80020248:	ea000009 	b	80020274 <memmove+0x9c>
            *--d = *--s;
8002024c:	e51b300c 	ldr	r3, [fp, #-12]
80020250:	e2433001 	sub	r3, r3, #1
80020254:	e50b300c 	str	r3, [fp, #-12]
80020258:	e51b3008 	ldr	r3, [fp, #-8]
8002025c:	e2433001 	sub	r3, r3, #1
80020260:	e50b3008 	str	r3, [fp, #-8]
80020264:	e51b3008 	ldr	r3, [fp, #-8]
80020268:	e5d32000 	ldrb	r2, [r3]
8002026c:	e51b300c 	ldr	r3, [fp, #-12]
80020270:	e5c32000 	strb	r2, [r3]

    if(s < d && s + n > d){
        s += n;
        d += n;

        while(n-- > 0) {
80020274:	e51b3018 	ldr	r3, [fp, #-24]	; 0xffffffe8
80020278:	e3530000 	cmp	r3, #0
8002027c:	03a03000 	moveq	r3, #0
80020280:	13a03001 	movne	r3, #1
80020284:	e6ef3073 	uxtb	r3, r3
80020288:	e51b2018 	ldr	r2, [fp, #-24]	; 0xffffffe8
8002028c:	e2422001 	sub	r2, r2, #1
80020290:	e50b2018 	str	r2, [fp, #-24]	; 0xffffffe8
80020294:	e3530000 	cmp	r3, #0
80020298:	1affffeb 	bne	8002024c <memmove+0x74>
    char *d;

    s = src;
    d = dst;

    if(s < d && s + n > d){
8002029c:	ea000015 	b	800202f8 <memmove+0x120>
            *--d = *--s;
        }

    } else {
        while(n-- > 0) {
            *d++ = *s++;
800202a0:	e51b3008 	ldr	r3, [fp, #-8]
800202a4:	e5d32000 	ldrb	r2, [r3]
800202a8:	e51b300c 	ldr	r3, [fp, #-12]
800202ac:	e5c32000 	strb	r2, [r3]
800202b0:	e51b300c 	ldr	r3, [fp, #-12]
800202b4:	e2833001 	add	r3, r3, #1
800202b8:	e50b300c 	str	r3, [fp, #-12]
800202bc:	e51b3008 	ldr	r3, [fp, #-8]
800202c0:	e2833001 	add	r3, r3, #1
800202c4:	e50b3008 	str	r3, [fp, #-8]
800202c8:	ea000000 	b	800202d0 <memmove+0xf8>
        while(n-- > 0) {
            *--d = *--s;
        }

    } else {
        while(n-- > 0) {
800202cc:	e1a00000 	nop			; (mov r0, r0)
800202d0:	e51b3018 	ldr	r3, [fp, #-24]	; 0xffffffe8
800202d4:	e3530000 	cmp	r3, #0
800202d8:	03a03000 	moveq	r3, #0
800202dc:	13a03001 	movne	r3, #1
800202e0:	e6ef3073 	uxtb	r3, r3
800202e4:	e51b2018 	ldr	r2, [fp, #-24]	; 0xffffffe8
800202e8:	e2422001 	sub	r2, r2, #1
800202ec:	e50b2018 	str	r2, [fp, #-24]	; 0xffffffe8
800202f0:	e3530000 	cmp	r3, #0
800202f4:	1affffe9 	bne	800202a0 <memmove+0xc8>
            *d++ = *s++;
        }
    }

    return dst;
800202f8:	e51b3010 	ldr	r3, [fp, #-16]
}
800202fc:	e1a00003 	mov	r0, r3
80020300:	e28bd000 	add	sp, fp, #0
80020304:	e8bd0800 	pop	{fp}
80020308:	e12fff1e 	bx	lr

8002030c <memcpy>:

// memcpy exists to placate GCC.  Use memmove.
void* memcpy(void *dst, const void *src, uint n)
{
8002030c:	e92d4800 	push	{fp, lr}
80020310:	e28db004 	add	fp, sp, #4
80020314:	e24dd010 	sub	sp, sp, #16
80020318:	e50b0008 	str	r0, [fp, #-8]
8002031c:	e50b100c 	str	r1, [fp, #-12]
80020320:	e50b2010 	str	r2, [fp, #-16]
    return memmove(dst, src, n);
80020324:	e51b0008 	ldr	r0, [fp, #-8]
80020328:	e51b100c 	ldr	r1, [fp, #-12]
8002032c:	e51b2010 	ldr	r2, [fp, #-16]
80020330:	ebffffa8 	bl	800201d8 <memmove>
80020334:	e1a03000 	mov	r3, r0
}
80020338:	e1a00003 	mov	r0, r3
8002033c:	e24bd004 	sub	sp, fp, #4
80020340:	e8bd8800 	pop	{fp, pc}

80020344 <strncmp>:

int strncmp(const char *p, const char *q, uint n)
{
80020344:	e52db004 	push	{fp}		; (str fp, [sp, #-4]!)
80020348:	e28db000 	add	fp, sp, #0
8002034c:	e24dd014 	sub	sp, sp, #20
80020350:	e50b0008 	str	r0, [fp, #-8]
80020354:	e50b100c 	str	r1, [fp, #-12]
80020358:	e50b2010 	str	r2, [fp, #-16]
    while(n > 0 && *p && *p == *q) {
8002035c:	ea000008 	b	80020384 <strncmp+0x40>
        n--, p++, q++;
80020360:	e51b3010 	ldr	r3, [fp, #-16]
80020364:	e2433001 	sub	r3, r3, #1
80020368:	e50b3010 	str	r3, [fp, #-16]
8002036c:	e51b3008 	ldr	r3, [fp, #-8]
80020370:	e2833001 	add	r3, r3, #1
80020374:	e50b3008 	str	r3, [fp, #-8]
80020378:	e51b300c 	ldr	r3, [fp, #-12]
8002037c:	e2833001 	add	r3, r3, #1
80020380:	e50b300c 	str	r3, [fp, #-12]
    return memmove(dst, src, n);
}

int strncmp(const char *p, const char *q, uint n)
{
    while(n > 0 && *p && *p == *q) {
80020384:	e51b3010 	ldr	r3, [fp, #-16]
80020388:	e3530000 	cmp	r3, #0
8002038c:	0a000009 	beq	800203b8 <strncmp+0x74>
80020390:	e51b3008 	ldr	r3, [fp, #-8]
80020394:	e5d33000 	ldrb	r3, [r3]
80020398:	e3530000 	cmp	r3, #0
8002039c:	0a000005 	beq	800203b8 <strncmp+0x74>
800203a0:	e51b3008 	ldr	r3, [fp, #-8]
800203a4:	e5d32000 	ldrb	r2, [r3]
800203a8:	e51b300c 	ldr	r3, [fp, #-12]
800203ac:	e5d33000 	ldrb	r3, [r3]
800203b0:	e1520003 	cmp	r2, r3
800203b4:	0affffe9 	beq	80020360 <strncmp+0x1c>
        n--, p++, q++;
    }

    if(n == 0) {
800203b8:	e51b3010 	ldr	r3, [fp, #-16]
800203bc:	e3530000 	cmp	r3, #0
800203c0:	1a000001 	bne	800203cc <strncmp+0x88>
        return 0;
800203c4:	e3a03000 	mov	r3, #0
800203c8:	ea000005 	b	800203e4 <strncmp+0xa0>
    }

    return (uchar)*p - (uchar)*q;
800203cc:	e51b3008 	ldr	r3, [fp, #-8]
800203d0:	e5d33000 	ldrb	r3, [r3]
800203d4:	e1a02003 	mov	r2, r3
800203d8:	e51b300c 	ldr	r3, [fp, #-12]
800203dc:	e5d33000 	ldrb	r3, [r3]
800203e0:	e0633002 	rsb	r3, r3, r2
}
800203e4:	e1a00003 	mov	r0, r3
800203e8:	e28bd000 	add	sp, fp, #0
800203ec:	e8bd0800 	pop	{fp}
800203f0:	e12fff1e 	bx	lr

800203f4 <strncpy>:

char* strncpy(char *s, const char *t, int n)
{
800203f4:	e52db004 	push	{fp}		; (str fp, [sp, #-4]!)
800203f8:	e28db000 	add	fp, sp, #0
800203fc:	e24dd01c 	sub	sp, sp, #28
80020400:	e50b0010 	str	r0, [fp, #-16]
80020404:	e50b1014 	str	r1, [fp, #-20]	; 0xffffffec
80020408:	e50b2018 	str	r2, [fp, #-24]	; 0xffffffe8
    char *os;

    os = s;
8002040c:	e51b3010 	ldr	r3, [fp, #-16]
80020410:	e50b3008 	str	r3, [fp, #-8]

    while(n-- > 0 && (*s++ = *t++) != 0)
80020414:	e1a00000 	nop			; (mov r0, r0)
80020418:	e51b3018 	ldr	r3, [fp, #-24]	; 0xffffffe8
8002041c:	e3530000 	cmp	r3, #0
80020420:	d3a03000 	movle	r3, #0
80020424:	c3a03001 	movgt	r3, #1
80020428:	e6ef3073 	uxtb	r3, r3
8002042c:	e51b2018 	ldr	r2, [fp, #-24]	; 0xffffffe8
80020430:	e2422001 	sub	r2, r2, #1
80020434:	e50b2018 	str	r2, [fp, #-24]	; 0xffffffe8
80020438:	e3530000 	cmp	r3, #0
8002043c:	0a000019 	beq	800204a8 <strncpy+0xb4>
80020440:	e51b3014 	ldr	r3, [fp, #-20]	; 0xffffffec
80020444:	e5d32000 	ldrb	r2, [r3]
80020448:	e51b3010 	ldr	r3, [fp, #-16]
8002044c:	e5c32000 	strb	r2, [r3]
80020450:	e51b3010 	ldr	r3, [fp, #-16]
80020454:	e5d33000 	ldrb	r3, [r3]
80020458:	e3530000 	cmp	r3, #0
8002045c:	03a03000 	moveq	r3, #0
80020460:	13a03001 	movne	r3, #1
80020464:	e6ef3073 	uxtb	r3, r3
80020468:	e51b2010 	ldr	r2, [fp, #-16]
8002046c:	e2822001 	add	r2, r2, #1
80020470:	e50b2010 	str	r2, [fp, #-16]
80020474:	e51b2014 	ldr	r2, [fp, #-20]	; 0xffffffec
80020478:	e2822001 	add	r2, r2, #1
8002047c:	e50b2014 	str	r2, [fp, #-20]	; 0xffffffec
80020480:	e3530000 	cmp	r3, #0
80020484:	1affffe3 	bne	80020418 <strncpy+0x24>
        ;

    while(n-- > 0) {
80020488:	ea000006 	b	800204a8 <strncpy+0xb4>
        *s++ = 0;
8002048c:	e51b3010 	ldr	r3, [fp, #-16]
80020490:	e3a02000 	mov	r2, #0
80020494:	e5c32000 	strb	r2, [r3]
80020498:	e51b3010 	ldr	r3, [fp, #-16]
8002049c:	e2833001 	add	r3, r3, #1
800204a0:	e50b3010 	str	r3, [fp, #-16]
800204a4:	ea000000 	b	800204ac <strncpy+0xb8>
    os = s;

    while(n-- > 0 && (*s++ = *t++) != 0)
        ;

    while(n-- > 0) {
800204a8:	e1a00000 	nop			; (mov r0, r0)
800204ac:	e51b3018 	ldr	r3, [fp, #-24]	; 0xffffffe8
800204b0:	e3530000 	cmp	r3, #0
800204b4:	d3a03000 	movle	r3, #0
800204b8:	c3a03001 	movgt	r3, #1
800204bc:	e6ef3073 	uxtb	r3, r3
800204c0:	e51b2018 	ldr	r2, [fp, #-24]	; 0xffffffe8
800204c4:	e2422001 	sub	r2, r2, #1
800204c8:	e50b2018 	str	r2, [fp, #-24]	; 0xffffffe8
800204cc:	e3530000 	cmp	r3, #0
800204d0:	1affffed 	bne	8002048c <strncpy+0x98>
        *s++ = 0;
    }

    return os;
800204d4:	e51b3008 	ldr	r3, [fp, #-8]
}
800204d8:	e1a00003 	mov	r0, r3
800204dc:	e28bd000 	add	sp, fp, #0
800204e0:	e8bd0800 	pop	{fp}
800204e4:	e12fff1e 	bx	lr

800204e8 <safestrcpy>:

// Like strncpy but guaranteed to NUL-terminate.
char* safestrcpy(char *s, const char *t, int n)
{
800204e8:	e52db004 	push	{fp}		; (str fp, [sp, #-4]!)
800204ec:	e28db000 	add	fp, sp, #0
800204f0:	e24dd01c 	sub	sp, sp, #28
800204f4:	e50b0010 	str	r0, [fp, #-16]
800204f8:	e50b1014 	str	r1, [fp, #-20]	; 0xffffffec
800204fc:	e50b2018 	str	r2, [fp, #-24]	; 0xffffffe8
    char *os;

    os = s;
80020500:	e51b3010 	ldr	r3, [fp, #-16]
80020504:	e50b3008 	str	r3, [fp, #-8]

    if(n <= 0) {
80020508:	e51b3018 	ldr	r3, [fp, #-24]	; 0xffffffe8
8002050c:	e3530000 	cmp	r3, #0
80020510:	ca000001 	bgt	8002051c <safestrcpy+0x34>
        return os;
80020514:	e51b3008 	ldr	r3, [fp, #-8]
80020518:	ea00001b 	b	8002058c <safestrcpy+0xa4>
    }

    while(--n > 0 && (*s++ = *t++) != 0)
8002051c:	e51b3018 	ldr	r3, [fp, #-24]	; 0xffffffe8
80020520:	e2433001 	sub	r3, r3, #1
80020524:	e50b3018 	str	r3, [fp, #-24]	; 0xffffffe8
80020528:	e51b3018 	ldr	r3, [fp, #-24]	; 0xffffffe8
8002052c:	e3530000 	cmp	r3, #0
80020530:	da000011 	ble	8002057c <safestrcpy+0x94>
80020534:	e51b3014 	ldr	r3, [fp, #-20]	; 0xffffffec
80020538:	e5d32000 	ldrb	r2, [r3]
8002053c:	e51b3010 	ldr	r3, [fp, #-16]
80020540:	e5c32000 	strb	r2, [r3]
80020544:	e51b3010 	ldr	r3, [fp, #-16]
80020548:	e5d33000 	ldrb	r3, [r3]
8002054c:	e3530000 	cmp	r3, #0
80020550:	03a03000 	moveq	r3, #0
80020554:	13a03001 	movne	r3, #1
80020558:	e6ef3073 	uxtb	r3, r3
8002055c:	e51b2010 	ldr	r2, [fp, #-16]
80020560:	e2822001 	add	r2, r2, #1
80020564:	e50b2010 	str	r2, [fp, #-16]
80020568:	e51b2014 	ldr	r2, [fp, #-20]	; 0xffffffec
8002056c:	e2822001 	add	r2, r2, #1
80020570:	e50b2014 	str	r2, [fp, #-20]	; 0xffffffec
80020574:	e3530000 	cmp	r3, #0
80020578:	1affffe7 	bne	8002051c <safestrcpy+0x34>
        ;

    *s = 0;
8002057c:	e51b3010 	ldr	r3, [fp, #-16]
80020580:	e3a02000 	mov	r2, #0
80020584:	e5c32000 	strb	r2, [r3]
    return os;
80020588:	e51b3008 	ldr	r3, [fp, #-8]
}
8002058c:	e1a00003 	mov	r0, r3
80020590:	e28bd000 	add	sp, fp, #0
80020594:	e8bd0800 	pop	{fp}
80020598:	e12fff1e 	bx	lr

8002059c <strlen>:

int strlen(const char *s)
{
8002059c:	e52db004 	push	{fp}		; (str fp, [sp, #-4]!)
800205a0:	e28db000 	add	fp, sp, #0
800205a4:	e24dd014 	sub	sp, sp, #20
800205a8:	e50b0010 	str	r0, [fp, #-16]
    int n;

    for(n = 0; s[n]; n++)
800205ac:	e3a03000 	mov	r3, #0
800205b0:	e50b3008 	str	r3, [fp, #-8]
800205b4:	ea000002 	b	800205c4 <strlen+0x28>
800205b8:	e51b3008 	ldr	r3, [fp, #-8]
800205bc:	e2833001 	add	r3, r3, #1
800205c0:	e50b3008 	str	r3, [fp, #-8]
800205c4:	e51b3008 	ldr	r3, [fp, #-8]
800205c8:	e51b2010 	ldr	r2, [fp, #-16]
800205cc:	e0823003 	add	r3, r2, r3
800205d0:	e5d33000 	ldrb	r3, [r3]
800205d4:	e3530000 	cmp	r3, #0
800205d8:	1afffff6 	bne	800205b8 <strlen+0x1c>
        ;

    return n;
800205dc:	e51b3008 	ldr	r3, [fp, #-8]
}
800205e0:	e1a00003 	mov	r0, r3
800205e4:	e28bd000 	add	sp, fp, #0
800205e8:	e8bd0800 	pop	{fp}
800205ec:	e12fff1e 	bx	lr

800205f0 <cli>:
#include "proc.h"
#include "arm.h"
#include "mmu.h"

void cli (void)
{
800205f0:	e92d0810 	push	{r4, fp}
800205f4:	e28db004 	add	fp, sp, #4
800205f8:	e24dd008 	sub	sp, sp, #8
    uint val;

    // ok, enable paging using read/modify/write
    asm("MRS %[v], cpsr": [v]"=r" (val)::);
800205fc:	e10f4000 	mrs	r4, CPSR
80020600:	e50b4008 	str	r4, [fp, #-8]
    val |= DIS_INT;
80020604:	e51b3008 	ldr	r3, [fp, #-8]
80020608:	e3833080 	orr	r3, r3, #128	; 0x80
8002060c:	e50b3008 	str	r3, [fp, #-8]
    asm("MSR cpsr_cxsf, %[v]": :[v]"r" (val):);
80020610:	e51b3008 	ldr	r3, [fp, #-8]
80020614:	e12ff003 	msr	CPSR_fsxc, r3
}
80020618:	e24bd004 	sub	sp, fp, #4
8002061c:	e8bd0810 	pop	{r4, fp}
80020620:	e12fff1e 	bx	lr

80020624 <sti>:

void sti (void)
{
80020624:	e92d0810 	push	{r4, fp}
80020628:	e28db004 	add	fp, sp, #4
8002062c:	e24dd008 	sub	sp, sp, #8
    uint val;

    // ok, enable paging using read/modify/write
    asm("MRS %[v], cpsr": [v]"=r" (val)::);
80020630:	e10f4000 	mrs	r4, CPSR
80020634:	e50b4008 	str	r4, [fp, #-8]
    val &= ~DIS_INT;
80020638:	e51b3008 	ldr	r3, [fp, #-8]
8002063c:	e3c33080 	bic	r3, r3, #128	; 0x80
80020640:	e50b3008 	str	r3, [fp, #-8]
    asm("MSR cpsr_cxsf, %[v]": :[v]"r" (val):);
80020644:	e51b3008 	ldr	r3, [fp, #-8]
80020648:	e12ff003 	msr	CPSR_fsxc, r3
}
8002064c:	e24bd004 	sub	sp, fp, #4
80020650:	e8bd0810 	pop	{r4, fp}
80020654:	e12fff1e 	bx	lr

80020658 <spsr_usr>:

// return the cpsr used for user program
uint spsr_usr ()
{
80020658:	e92d0810 	push	{r4, fp}
8002065c:	e28db004 	add	fp, sp, #4
80020660:	e24dd008 	sub	sp, sp, #8
    uint val;

    // ok, enable paging using read/modify/write
    asm("MRS %[v], cpsr": [v]"=r" (val)::);
80020664:	e10f4000 	mrs	r4, CPSR
80020668:	e50b4008 	str	r4, [fp, #-8]
    val &= ~MODE_MASK;
8002066c:	e51b3008 	ldr	r3, [fp, #-8]
80020670:	e3c3301f 	bic	r3, r3, #31
80020674:	e50b3008 	str	r3, [fp, #-8]
    val |= USR_MODE;
80020678:	e51b3008 	ldr	r3, [fp, #-8]
8002067c:	e3833010 	orr	r3, r3, #16
80020680:	e50b3008 	str	r3, [fp, #-8]

    return val;
80020684:	e51b3008 	ldr	r3, [fp, #-8]
}
80020688:	e1a00003 	mov	r0, r3
8002068c:	e24bd004 	sub	sp, fp, #4
80020690:	e8bd0810 	pop	{r4, fp}
80020694:	e12fff1e 	bx	lr

80020698 <int_enabled>:

// return whether interrupt is currently enabled
int int_enabled ()
{
80020698:	e92d0810 	push	{r4, fp}
8002069c:	e28db004 	add	fp, sp, #4
800206a0:	e24dd008 	sub	sp, sp, #8
    uint val;

    // ok, enable paging using read/modify/write
    asm("MRS %[v], cpsr": [v]"=r" (val)::);
800206a4:	e10f4000 	mrs	r4, CPSR
800206a8:	e50b4008 	str	r4, [fp, #-8]

    return !(val & DIS_INT);
800206ac:	e51b3008 	ldr	r3, [fp, #-8]
800206b0:	e2033080 	and	r3, r3, #128	; 0x80
800206b4:	e3530000 	cmp	r3, #0
800206b8:	13a03000 	movne	r3, #0
800206bc:	03a03001 	moveq	r3, #1
}
800206c0:	e1a00003 	mov	r0, r3
800206c4:	e24bd004 	sub	sp, fp, #4
800206c8:	e8bd0810 	pop	{r4, fp}
800206cc:	e12fff1e 	bx	lr

800206d0 <pushcli>:
// Pushcli/popcli are like cli/sti except that they are matched:
// it takes two popcli to undo two pushcli.  Also, if interrupts
// are off, then pushcli, popcli leaves them off.

void pushcli (void)
{
800206d0:	e92d4800 	push	{fp, lr}
800206d4:	e28db004 	add	fp, sp, #4
800206d8:	e24dd008 	sub	sp, sp, #8
    int enabled;

    enabled = int_enabled();
800206dc:	ebffffed 	bl	80020698 <int_enabled>
800206e0:	e50b0008 	str	r0, [fp, #-8]

    cli();
800206e4:	ebffffc1 	bl	800205f0 <cli>

    if (cpu->ncli++ == 0) {
800206e8:	e30e351c 	movw	r3, #58652	; 0xe51c
800206ec:	e348300a 	movt	r3, #32778	; 0x800a
800206f0:	e5933000 	ldr	r3, [r3]
800206f4:	e593200c 	ldr	r2, [r3, #12]
800206f8:	e3520000 	cmp	r2, #0
800206fc:	13a01000 	movne	r1, #0
80020700:	03a01001 	moveq	r1, #1
80020704:	e6ef1071 	uxtb	r1, r1
80020708:	e2822001 	add	r2, r2, #1
8002070c:	e583200c 	str	r2, [r3, #12]
80020710:	e3510000 	cmp	r1, #0
80020714:	0a000004 	beq	8002072c <pushcli+0x5c>
        cpu->intena = enabled;
80020718:	e30e351c 	movw	r3, #58652	; 0xe51c
8002071c:	e348300a 	movt	r3, #32778	; 0x800a
80020720:	e5933000 	ldr	r3, [r3]
80020724:	e51b2008 	ldr	r2, [fp, #-8]
80020728:	e5832010 	str	r2, [r3, #16]
    }
}
8002072c:	e24bd004 	sub	sp, fp, #4
80020730:	e8bd8800 	pop	{fp, pc}

80020734 <popcli>:

void popcli (void)
{
80020734:	e92d4800 	push	{fp, lr}
80020738:	e28db004 	add	fp, sp, #4
    if (int_enabled()) {
8002073c:	ebffffd5 	bl	80020698 <int_enabled>
80020740:	e1a03000 	mov	r3, r0
80020744:	e3530000 	cmp	r3, #0
80020748:	0a000002 	beq	80020758 <popcli+0x24>
        panic("popcli - interruptible");
8002074c:	e3090b78 	movw	r0, #39800	; 0x9b78
80020750:	e3480002 	movt	r0, #32770	; 0x8002
80020754:	eb000518 	bl	80021bbc <panic>
    }

    if (--cpu->ncli < 0) {
80020758:	e30e351c 	movw	r3, #58652	; 0xe51c
8002075c:	e348300a 	movt	r3, #32778	; 0x800a
80020760:	e5933000 	ldr	r3, [r3]
80020764:	e593200c 	ldr	r2, [r3, #12]
80020768:	e2422001 	sub	r2, r2, #1
8002076c:	e583200c 	str	r2, [r3, #12]
80020770:	e593300c 	ldr	r3, [r3, #12]
80020774:	e3530000 	cmp	r3, #0
80020778:	aa00000e 	bge	800207b8 <popcli+0x84>
        cprintf("cpu (%d)->ncli: %d\n", cpu, cpu->ncli);
8002077c:	e30e351c 	movw	r3, #58652	; 0xe51c
80020780:	e348300a 	movt	r3, #32778	; 0x800a
80020784:	e5932000 	ldr	r2, [r3]
80020788:	e30e351c 	movw	r3, #58652	; 0xe51c
8002078c:	e348300a 	movt	r3, #32778	; 0x800a
80020790:	e5933000 	ldr	r3, [r3]
80020794:	e593300c 	ldr	r3, [r3, #12]
80020798:	e3090b90 	movw	r0, #39824	; 0x9b90
8002079c:	e3480002 	movt	r0, #32770	; 0x8002
800207a0:	e1a01002 	mov	r1, r2
800207a4:	e1a02003 	mov	r2, r3
800207a8:	eb000478 	bl	80021990 <cprintf>
        panic("popcli -- ncli < 0");
800207ac:	e3090ba4 	movw	r0, #39844	; 0x9ba4
800207b0:	e3480002 	movt	r0, #32770	; 0x8002
800207b4:	eb000500 	bl	80021bbc <panic>
    }

    if ((cpu->ncli == 0) && cpu->intena) {
800207b8:	e30e351c 	movw	r3, #58652	; 0xe51c
800207bc:	e348300a 	movt	r3, #32778	; 0x800a
800207c0:	e5933000 	ldr	r3, [r3]
800207c4:	e593300c 	ldr	r3, [r3, #12]
800207c8:	e3530000 	cmp	r3, #0
800207cc:	1a000006 	bne	800207ec <popcli+0xb8>
800207d0:	e30e351c 	movw	r3, #58652	; 0xe51c
800207d4:	e348300a 	movt	r3, #32778	; 0x800a
800207d8:	e5933000 	ldr	r3, [r3]
800207dc:	e5933010 	ldr	r3, [r3, #16]
800207e0:	e3530000 	cmp	r3, #0
800207e4:	0a000000 	beq	800207ec <popcli+0xb8>
        sti();
800207e8:	ebffff8d 	bl	80020624 <sti>
    }
}
800207ec:	e8bd8800 	pop	{fp, pc}

800207f0 <getcallerpcs>:
// In ARM ABI, the function prologue is as:
//		push	{fp, lr}
//		add		fp, sp, #4
// so, fp points to lr, the return address
void getcallerpcs (void * v, uint pcs[])
{
800207f0:	e52db004 	push	{fp}		; (str fp, [sp, #-4]!)
800207f4:	e28db000 	add	fp, sp, #0
800207f8:	e24dd014 	sub	sp, sp, #20
800207fc:	e50b0010 	str	r0, [fp, #-16]
80020800:	e50b1014 	str	r1, [fp, #-20]	; 0xffffffec
    uint *fp;
    int i;

    fp = (uint*) v;
80020804:	e51b3010 	ldr	r3, [fp, #-16]
80020808:	e50b3008 	str	r3, [fp, #-8]

    for (i = 0; i < N_CALLSTK; i++) {
8002080c:	e3a03000 	mov	r3, #0
80020810:	e50b300c 	str	r3, [fp, #-12]
80020814:	ea000018 	b	8002087c <getcallerpcs+0x8c>
        if ((fp == 0) || (fp < (uint*) KERNBASE) || (fp == (uint*) 0xffffffff)) {
80020818:	e51b3008 	ldr	r3, [fp, #-8]
8002081c:	e3530000 	cmp	r3, #0
80020820:	0a000022 	beq	800208b0 <getcallerpcs+0xc0>
80020824:	e51b3008 	ldr	r3, [fp, #-8]
80020828:	e3730106 	cmn	r3, #-2147483647	; 0x80000001
8002082c:	9a00001f 	bls	800208b0 <getcallerpcs+0xc0>
80020830:	e51b3008 	ldr	r3, [fp, #-8]
80020834:	e3730001 	cmn	r3, #1
80020838:	0a00001c 	beq	800208b0 <getcallerpcs+0xc0>
            break;
        }

        fp = fp - 1;			// points fp to the saved fp
8002083c:	e51b3008 	ldr	r3, [fp, #-8]
80020840:	e2433004 	sub	r3, r3, #4
80020844:	e50b3008 	str	r3, [fp, #-8]
        pcs[i] = fp[1];     // saved lr
80020848:	e51b300c 	ldr	r3, [fp, #-12]
8002084c:	e1a03103 	lsl	r3, r3, #2
80020850:	e51b2014 	ldr	r2, [fp, #-20]	; 0xffffffec
80020854:	e0823003 	add	r3, r2, r3
80020858:	e51b2008 	ldr	r2, [fp, #-8]
8002085c:	e5922004 	ldr	r2, [r2, #4]
80020860:	e5832000 	str	r2, [r3]
        fp = (uint*) fp[0];	// saved fp
80020864:	e51b3008 	ldr	r3, [fp, #-8]
80020868:	e5933000 	ldr	r3, [r3]
8002086c:	e50b3008 	str	r3, [fp, #-8]
    uint *fp;
    int i;

    fp = (uint*) v;

    for (i = 0; i < N_CALLSTK; i++) {
80020870:	e51b300c 	ldr	r3, [fp, #-12]
80020874:	e2833001 	add	r3, r3, #1
80020878:	e50b300c 	str	r3, [fp, #-12]
8002087c:	e51b300c 	ldr	r3, [fp, #-12]
80020880:	e353000e 	cmp	r3, #14
80020884:	daffffe3 	ble	80020818 <getcallerpcs+0x28>
        fp = fp - 1;			// points fp to the saved fp
        pcs[i] = fp[1];     // saved lr
        fp = (uint*) fp[0];	// saved fp
    }

    for (; i < N_CALLSTK; i++) {
80020888:	ea000008 	b	800208b0 <getcallerpcs+0xc0>
        pcs[i] = 0;
8002088c:	e51b300c 	ldr	r3, [fp, #-12]
80020890:	e1a03103 	lsl	r3, r3, #2
80020894:	e51b2014 	ldr	r2, [fp, #-20]	; 0xffffffec
80020898:	e0823003 	add	r3, r2, r3
8002089c:	e3a02000 	mov	r2, #0
800208a0:	e5832000 	str	r2, [r3]
        fp = fp - 1;			// points fp to the saved fp
        pcs[i] = fp[1];     // saved lr
        fp = (uint*) fp[0];	// saved fp
    }

    for (; i < N_CALLSTK; i++) {
800208a4:	e51b300c 	ldr	r3, [fp, #-12]
800208a8:	e2833001 	add	r3, r3, #1
800208ac:	e50b300c 	str	r3, [fp, #-12]
800208b0:	e51b300c 	ldr	r3, [fp, #-12]
800208b4:	e353000e 	cmp	r3, #14
800208b8:	dafffff3 	ble	8002088c <getcallerpcs+0x9c>
        pcs[i] = 0;
    }
}
800208bc:	e28bd000 	add	sp, fp, #0
800208c0:	e8bd0800 	pop	{fp}
800208c4:	e12fff1e 	bx	lr

800208c8 <show_callstk>:

void show_callstk (char *s)
{
800208c8:	e92d4800 	push	{fp, lr}
800208cc:	e28db004 	add	fp, sp, #4
800208d0:	e24dd048 	sub	sp, sp, #72	; 0x48
800208d4:	e50b0048 	str	r0, [fp, #-72]	; 0xffffffb8
    int i;
    uint pcs[N_CALLSTK];

    cprintf("%s\n", s);
800208d8:	e3090bb8 	movw	r0, #39864	; 0x9bb8
800208dc:	e3480002 	movt	r0, #32770	; 0x8002
800208e0:	e51b1048 	ldr	r1, [fp, #-72]	; 0xffffffb8
800208e4:	eb000429 	bl	80021990 <cprintf>

    getcallerpcs(get_fp(), pcs);
800208e8:	eb000027 	bl	8002098c <get_fp>
800208ec:	e1a03000 	mov	r3, r0
800208f0:	e1a00003 	mov	r0, r3
800208f4:	e24b3044 	sub	r3, fp, #68	; 0x44
800208f8:	e1a01003 	mov	r1, r3
800208fc:	ebffffbb 	bl	800207f0 <getcallerpcs>

    for (i = N_CALLSTK - 1; i >= 0; i--) {
80020900:	e3a0300e 	mov	r3, #14
80020904:	e50b3008 	str	r3, [fp, #-8]
80020908:	ea000011 	b	80020954 <show_callstk+0x8c>
        cprintf("%d: 0x%x\n", i + 1, pcs[i]);
8002090c:	e51b3008 	ldr	r3, [fp, #-8]
80020910:	e2832001 	add	r2, r3, #1
80020914:	e51b3008 	ldr	r3, [fp, #-8]
80020918:	e3e0003f 	mvn	r0, #63	; 0x3f
8002091c:	e1a03103 	lsl	r3, r3, #2
80020920:	e24bc004 	sub	ip, fp, #4
80020924:	e08c1003 	add	r1, ip, r3
80020928:	e1a03000 	mov	r3, r0
8002092c:	e0813003 	add	r3, r1, r3
80020930:	e5933000 	ldr	r3, [r3]
80020934:	e3090bbc 	movw	r0, #39868	; 0x9bbc
80020938:	e3480002 	movt	r0, #32770	; 0x8002
8002093c:	e1a01002 	mov	r1, r2
80020940:	e1a02003 	mov	r2, r3
80020944:	eb000411 	bl	80021990 <cprintf>

    cprintf("%s\n", s);

    getcallerpcs(get_fp(), pcs);

    for (i = N_CALLSTK - 1; i >= 0; i--) {
80020948:	e51b3008 	ldr	r3, [fp, #-8]
8002094c:	e2433001 	sub	r3, r3, #1
80020950:	e50b3008 	str	r3, [fp, #-8]
80020954:	e51b3008 	ldr	r3, [fp, #-8]
80020958:	e3530000 	cmp	r3, #0
8002095c:	aaffffea 	bge	8002090c <show_callstk+0x44>
        cprintf("%d: 0x%x\n", i + 1, pcs[i]);
    }

}
80020960:	e24bd004 	sub	sp, fp, #4
80020964:	e8bd8800 	pop	{fp, pc}

80020968 <set_stk>:
80020968:	e10f2000 	mrs	r2, CPSR
8002096c:	e3c2201f 	bic	r2, r2, #31
80020970:	e1822000 	orr	r2, r2, r0
80020974:	e12ff002 	msr	CPSR_fsxc, r2
80020978:	e1a0d001 	mov	sp, r1
8002097c:	e3c2201f 	bic	r2, r2, #31
80020980:	e3822013 	orr	r2, r2, #19
80020984:	e12ff002 	msr	CPSR_fsxc, r2
80020988:	e12fff1e 	bx	lr

8002098c <get_fp>:
8002098c:	e1a0000b 	mov	r0, fp
80020990:	e12fff1e 	bx	lr

80020994 <binit>:
    // head.next is most recently used.
    struct buf head;
} bcache;

void binit (void)
{
80020994:	e92d4800 	push	{fp, lr}
80020998:	e28db004 	add	fp, sp, #4
8002099c:	e24dd008 	sub	sp, sp, #8
    struct buf *b;

    initlock(&bcache.lock, "bcache");
800209a0:	e30b00c4 	movw	r0, #45252	; 0xb0c4
800209a4:	e348000a 	movt	r0, #32778	; 0x800a
800209a8:	e3091bc8 	movw	r1, #39880	; 0x9bc8
800209ac:	e3481002 	movt	r1, #32770	; 0x8002
800209b0:	eb0015a4 	bl	80026048 <initlock>

    //PAGEBREAK!
    // Create linked list of buffers
    bcache.head.prev = &bcache.head;
800209b4:	e30b30c4 	movw	r3, #45252	; 0xb0c4
800209b8:	e348300a 	movt	r3, #32778	; 0x800a
800209bc:	e3012530 	movw	r2, #5424	; 0x1530
800209c0:	e59f10a0 	ldr	r1, [pc, #160]	; 80020a68 <binit+0xd4>
800209c4:	e7831002 	str	r1, [r3, r2]
    bcache.head.next = &bcache.head;
800209c8:	e30b30c4 	movw	r3, #45252	; 0xb0c4
800209cc:	e348300a 	movt	r3, #32778	; 0x800a
800209d0:	e3012534 	movw	r2, #5428	; 0x1534
800209d4:	e59f108c 	ldr	r1, [pc, #140]	; 80020a68 <binit+0xd4>
800209d8:	e7831002 	str	r1, [r3, r2]

    for (b = bcache.buf; b < bcache.buf + NBUF; b++) {
800209dc:	e59f3088 	ldr	r3, [pc, #136]	; 80020a6c <binit+0xd8>
800209e0:	e50b3008 	str	r3, [fp, #-8]
800209e4:	ea000019 	b	80020a50 <binit+0xbc>
        b->next = bcache.head.next;
800209e8:	e30b30c4 	movw	r3, #45252	; 0xb0c4
800209ec:	e348300a 	movt	r3, #32778	; 0x800a
800209f0:	e3012534 	movw	r2, #5428	; 0x1534
800209f4:	e7932002 	ldr	r2, [r3, r2]
800209f8:	e51b3008 	ldr	r3, [fp, #-8]
800209fc:	e5832010 	str	r2, [r3, #16]
        b->prev = &bcache.head;
80020a00:	e51b3008 	ldr	r3, [fp, #-8]
80020a04:	e59f205c 	ldr	r2, [pc, #92]	; 80020a68 <binit+0xd4>
80020a08:	e583200c 	str	r2, [r3, #12]
        b->dev = -1;
80020a0c:	e51b3008 	ldr	r3, [fp, #-8]
80020a10:	e3e02000 	mvn	r2, #0
80020a14:	e5832004 	str	r2, [r3, #4]
        bcache.head.next->prev = b;
80020a18:	e30b30c4 	movw	r3, #45252	; 0xb0c4
80020a1c:	e348300a 	movt	r3, #32778	; 0x800a
80020a20:	e3012534 	movw	r2, #5428	; 0x1534
80020a24:	e7933002 	ldr	r3, [r3, r2]
80020a28:	e51b2008 	ldr	r2, [fp, #-8]
80020a2c:	e583200c 	str	r2, [r3, #12]
        bcache.head.next = b;
80020a30:	e30b30c4 	movw	r3, #45252	; 0xb0c4
80020a34:	e348300a 	movt	r3, #32778	; 0x800a
80020a38:	e3012534 	movw	r2, #5428	; 0x1534
80020a3c:	e51b1008 	ldr	r1, [fp, #-8]
80020a40:	e7831002 	str	r1, [r3, r2]
    //PAGEBREAK!
    // Create linked list of buffers
    bcache.head.prev = &bcache.head;
    bcache.head.next = &bcache.head;

    for (b = bcache.buf; b < bcache.buf + NBUF; b++) {
80020a44:	e51b3008 	ldr	r3, [fp, #-8]
80020a48:	e2833f86 	add	r3, r3, #536	; 0x218
80020a4c:	e50b3008 	str	r3, [fp, #-8]
80020a50:	e51b2008 	ldr	r2, [fp, #-8]
80020a54:	e59f300c 	ldr	r3, [pc, #12]	; 80020a68 <binit+0xd4>
80020a58:	e1520003 	cmp	r2, r3
80020a5c:	3affffe1 	bcc	800209e8 <binit+0x54>
        b->prev = &bcache.head;
        b->dev = -1;
        bcache.head.next->prev = b;
        bcache.head.next = b;
    }
}
80020a60:	e24bd004 	sub	sp, fp, #4
80020a64:	e8bd8800 	pop	{fp, pc}
80020a68:	800ac5e8 	.word	0x800ac5e8
80020a6c:	800ab0f8 	.word	0x800ab0f8

80020a70 <bget>:

// Look through buffer cache for sector on device dev.
// If not found, allocate fresh block.
// In either case, return B_BUSY buffer.
static struct buf* bget (uint dev, uint sector)
{
80020a70:	e92d4800 	push	{fp, lr}
80020a74:	e28db004 	add	fp, sp, #4
80020a78:	e24dd010 	sub	sp, sp, #16
80020a7c:	e50b0010 	str	r0, [fp, #-16]
80020a80:	e50b1014 	str	r1, [fp, #-20]	; 0xffffffec
    struct buf *b;

    acquire(&bcache.lock);
80020a84:	e30b00c4 	movw	r0, #45252	; 0xb0c4
80020a88:	e348000a 	movt	r0, #32778	; 0x800a
80020a8c:	eb00157e 	bl	8002608c <acquire>

    loop:
    // Is the sector already cached?
    for (b = bcache.head.next; b != &bcache.head; b = b->next) {
80020a90:	e30b30c4 	movw	r3, #45252	; 0xb0c4
80020a94:	e348300a 	movt	r3, #32778	; 0x800a
80020a98:	e3012534 	movw	r2, #5428	; 0x1534
80020a9c:	e7933002 	ldr	r3, [r3, r2]
80020aa0:	e50b3008 	str	r3, [fp, #-8]
80020aa4:	ea000020 	b	80020b2c <bget+0xbc>
        if (b->dev == dev && b->sector == sector) {
80020aa8:	e51b3008 	ldr	r3, [fp, #-8]
80020aac:	e5932004 	ldr	r2, [r3, #4]
80020ab0:	e51b3010 	ldr	r3, [fp, #-16]
80020ab4:	e1520003 	cmp	r2, r3
80020ab8:	1a000018 	bne	80020b20 <bget+0xb0>
80020abc:	e51b3008 	ldr	r3, [fp, #-8]
80020ac0:	e5932008 	ldr	r2, [r3, #8]
80020ac4:	e51b3014 	ldr	r3, [fp, #-20]	; 0xffffffec
80020ac8:	e1520003 	cmp	r2, r3
80020acc:	1a000013 	bne	80020b20 <bget+0xb0>
            if (!(b->flags & B_BUSY)) {
80020ad0:	e51b3008 	ldr	r3, [fp, #-8]
80020ad4:	e5933000 	ldr	r3, [r3]
80020ad8:	e2033001 	and	r3, r3, #1
80020adc:	e3530000 	cmp	r3, #0
80020ae0:	1a000009 	bne	80020b0c <bget+0x9c>
                b->flags |= B_BUSY;
80020ae4:	e51b3008 	ldr	r3, [fp, #-8]
80020ae8:	e5933000 	ldr	r3, [r3]
80020aec:	e3832001 	orr	r2, r3, #1
80020af0:	e51b3008 	ldr	r3, [fp, #-8]
80020af4:	e5832000 	str	r2, [r3]
                release(&bcache.lock);
80020af8:	e30b00c4 	movw	r0, #45252	; 0xb0c4
80020afc:	e348000a 	movt	r0, #32778	; 0x800a
80020b00:	eb00156b 	bl	800260b4 <release>
                return b;
80020b04:	e51b3008 	ldr	r3, [fp, #-8]
80020b08:	ea000033 	b	80020bdc <bget+0x16c>
            }

            sleep(b, &bcache.lock);
80020b0c:	e51b0008 	ldr	r0, [fp, #-8]
80020b10:	e30b10c4 	movw	r1, #45252	; 0xb0c4
80020b14:	e348100a 	movt	r1, #32778	; 0x800a
80020b18:	eb001474 	bl	80025cf0 <sleep>
            goto loop;
80020b1c:	eaffffdb 	b	80020a90 <bget+0x20>

    acquire(&bcache.lock);

    loop:
    // Is the sector already cached?
    for (b = bcache.head.next; b != &bcache.head; b = b->next) {
80020b20:	e51b3008 	ldr	r3, [fp, #-8]
80020b24:	e5933010 	ldr	r3, [r3, #16]
80020b28:	e50b3008 	str	r3, [fp, #-8]
80020b2c:	e51b2008 	ldr	r2, [fp, #-8]
80020b30:	e59f30b0 	ldr	r3, [pc, #176]	; 80020be8 <bget+0x178>
80020b34:	e1520003 	cmp	r2, r3
80020b38:	1affffda 	bne	80020aa8 <bget+0x38>
            goto loop;
        }
    }

    // Not cached; recycle some non-busy and clean buffer.
    for (b = bcache.head.prev; b != &bcache.head; b = b->prev) {
80020b3c:	e30b30c4 	movw	r3, #45252	; 0xb0c4
80020b40:	e348300a 	movt	r3, #32778	; 0x800a
80020b44:	e3012530 	movw	r2, #5424	; 0x1530
80020b48:	e7933002 	ldr	r3, [r3, r2]
80020b4c:	e50b3008 	str	r3, [fp, #-8]
80020b50:	ea00001a 	b	80020bc0 <bget+0x150>
        if ((b->flags & B_BUSY) == 0 && (b->flags & B_DIRTY) == 0) {
80020b54:	e51b3008 	ldr	r3, [fp, #-8]
80020b58:	e5933000 	ldr	r3, [r3]
80020b5c:	e2033001 	and	r3, r3, #1
80020b60:	e3530000 	cmp	r3, #0
80020b64:	1a000012 	bne	80020bb4 <bget+0x144>
80020b68:	e51b3008 	ldr	r3, [fp, #-8]
80020b6c:	e5933000 	ldr	r3, [r3]
80020b70:	e2033004 	and	r3, r3, #4
80020b74:	e3530000 	cmp	r3, #0
80020b78:	1a00000d 	bne	80020bb4 <bget+0x144>
            b->dev = dev;
80020b7c:	e51b3008 	ldr	r3, [fp, #-8]
80020b80:	e51b2010 	ldr	r2, [fp, #-16]
80020b84:	e5832004 	str	r2, [r3, #4]
            b->sector = sector;
80020b88:	e51b3008 	ldr	r3, [fp, #-8]
80020b8c:	e51b2014 	ldr	r2, [fp, #-20]	; 0xffffffec
80020b90:	e5832008 	str	r2, [r3, #8]
            b->flags = B_BUSY;
80020b94:	e51b3008 	ldr	r3, [fp, #-8]
80020b98:	e3a02001 	mov	r2, #1
80020b9c:	e5832000 	str	r2, [r3]
            release(&bcache.lock);
80020ba0:	e30b00c4 	movw	r0, #45252	; 0xb0c4
80020ba4:	e348000a 	movt	r0, #32778	; 0x800a
80020ba8:	eb001541 	bl	800260b4 <release>
            return b;
80020bac:	e51b3008 	ldr	r3, [fp, #-8]
80020bb0:	ea000009 	b	80020bdc <bget+0x16c>
            goto loop;
        }
    }

    // Not cached; recycle some non-busy and clean buffer.
    for (b = bcache.head.prev; b != &bcache.head; b = b->prev) {
80020bb4:	e51b3008 	ldr	r3, [fp, #-8]
80020bb8:	e593300c 	ldr	r3, [r3, #12]
80020bbc:	e50b3008 	str	r3, [fp, #-8]
80020bc0:	e51b2008 	ldr	r2, [fp, #-8]
80020bc4:	e59f301c 	ldr	r3, [pc, #28]	; 80020be8 <bget+0x178>
80020bc8:	e1520003 	cmp	r2, r3
80020bcc:	1affffe0 	bne	80020b54 <bget+0xe4>
            release(&bcache.lock);
            return b;
        }
    }

    panic("bget: no buffers");
80020bd0:	e3090bd0 	movw	r0, #39888	; 0x9bd0
80020bd4:	e3480002 	movt	r0, #32770	; 0x8002
80020bd8:	eb0003f7 	bl	80021bbc <panic>
}
80020bdc:	e1a00003 	mov	r0, r3
80020be0:	e24bd004 	sub	sp, fp, #4
80020be4:	e8bd8800 	pop	{fp, pc}
80020be8:	800ac5e8 	.word	0x800ac5e8

80020bec <bread>:

// Return a B_BUSY buf with the contents of the indicated disk sector.
struct buf* bread (uint dev, uint sector)
{
80020bec:	e92d4800 	push	{fp, lr}
80020bf0:	e28db004 	add	fp, sp, #4
80020bf4:	e24dd010 	sub	sp, sp, #16
80020bf8:	e50b0010 	str	r0, [fp, #-16]
80020bfc:	e50b1014 	str	r1, [fp, #-20]	; 0xffffffec
    struct buf *b;

    b = bget(dev, sector);
80020c00:	e51b0010 	ldr	r0, [fp, #-16]
80020c04:	e51b1014 	ldr	r1, [fp, #-20]	; 0xffffffec
80020c08:	ebffff98 	bl	80020a70 <bget>
80020c0c:	e50b0008 	str	r0, [fp, #-8]

    if (!(b->flags & B_VALID)) {
80020c10:	e51b3008 	ldr	r3, [fp, #-8]
80020c14:	e5933000 	ldr	r3, [r3]
80020c18:	e2033002 	and	r3, r3, #2
80020c1c:	e3530000 	cmp	r3, #0
80020c20:	1a000001 	bne	80020c2c <bread+0x40>
        iderw(b);
80020c24:	e51b0008 	ldr	r0, [fp, #-8]
80020c28:	eb000fa6 	bl	80024ac8 <iderw>
    }

    return b;
80020c2c:	e51b3008 	ldr	r3, [fp, #-8]
}
80020c30:	e1a00003 	mov	r0, r3
80020c34:	e24bd004 	sub	sp, fp, #4
80020c38:	e8bd8800 	pop	{fp, pc}

80020c3c <bwrite>:

// Write b's contents to disk.  Must be B_BUSY.
void bwrite (struct buf *b)
{
80020c3c:	e92d4800 	push	{fp, lr}
80020c40:	e28db004 	add	fp, sp, #4
80020c44:	e24dd008 	sub	sp, sp, #8
80020c48:	e50b0008 	str	r0, [fp, #-8]
    if ((b->flags & B_BUSY) == 0) {
80020c4c:	e51b3008 	ldr	r3, [fp, #-8]
80020c50:	e5933000 	ldr	r3, [r3]
80020c54:	e2033001 	and	r3, r3, #1
80020c58:	e3530000 	cmp	r3, #0
80020c5c:	1a000002 	bne	80020c6c <bwrite+0x30>
        panic("bwrite");
80020c60:	e3090be4 	movw	r0, #39908	; 0x9be4
80020c64:	e3480002 	movt	r0, #32770	; 0x8002
80020c68:	eb0003d3 	bl	80021bbc <panic>
    }

    b->flags |= B_DIRTY;
80020c6c:	e51b3008 	ldr	r3, [fp, #-8]
80020c70:	e5933000 	ldr	r3, [r3]
80020c74:	e3832004 	orr	r2, r3, #4
80020c78:	e51b3008 	ldr	r3, [fp, #-8]
80020c7c:	e5832000 	str	r2, [r3]
    iderw(b);
80020c80:	e51b0008 	ldr	r0, [fp, #-8]
80020c84:	eb000f8f 	bl	80024ac8 <iderw>
}
80020c88:	e24bd004 	sub	sp, fp, #4
80020c8c:	e8bd8800 	pop	{fp, pc}

80020c90 <brelse>:

// Release a B_BUSY buffer.
// Move to the head of the MRU list.
void brelse (struct buf *b)
{
80020c90:	e92d4800 	push	{fp, lr}
80020c94:	e28db004 	add	fp, sp, #4
80020c98:	e24dd008 	sub	sp, sp, #8
80020c9c:	e50b0008 	str	r0, [fp, #-8]
    if ((b->flags & B_BUSY) == 0) {
80020ca0:	e51b3008 	ldr	r3, [fp, #-8]
80020ca4:	e5933000 	ldr	r3, [r3]
80020ca8:	e2033001 	and	r3, r3, #1
80020cac:	e3530000 	cmp	r3, #0
80020cb0:	1a000002 	bne	80020cc0 <brelse+0x30>
        panic("brelse");
80020cb4:	e3090bec 	movw	r0, #39916	; 0x9bec
80020cb8:	e3480002 	movt	r0, #32770	; 0x8002
80020cbc:	eb0003be 	bl	80021bbc <panic>
    }

    acquire(&bcache.lock);
80020cc0:	e30b00c4 	movw	r0, #45252	; 0xb0c4
80020cc4:	e348000a 	movt	r0, #32778	; 0x800a
80020cc8:	eb0014ef 	bl	8002608c <acquire>

    b->next->prev = b->prev;
80020ccc:	e51b3008 	ldr	r3, [fp, #-8]
80020cd0:	e5933010 	ldr	r3, [r3, #16]
80020cd4:	e51b2008 	ldr	r2, [fp, #-8]
80020cd8:	e592200c 	ldr	r2, [r2, #12]
80020cdc:	e583200c 	str	r2, [r3, #12]
    b->prev->next = b->next;
80020ce0:	e51b3008 	ldr	r3, [fp, #-8]
80020ce4:	e593300c 	ldr	r3, [r3, #12]
80020ce8:	e51b2008 	ldr	r2, [fp, #-8]
80020cec:	e5922010 	ldr	r2, [r2, #16]
80020cf0:	e5832010 	str	r2, [r3, #16]
    b->next = bcache.head.next;
80020cf4:	e30b30c4 	movw	r3, #45252	; 0xb0c4
80020cf8:	e348300a 	movt	r3, #32778	; 0x800a
80020cfc:	e3012534 	movw	r2, #5428	; 0x1534
80020d00:	e7932002 	ldr	r2, [r3, r2]
80020d04:	e51b3008 	ldr	r3, [fp, #-8]
80020d08:	e5832010 	str	r2, [r3, #16]
    b->prev = &bcache.head;
80020d0c:	e51b3008 	ldr	r3, [fp, #-8]
80020d10:	e59f205c 	ldr	r2, [pc, #92]	; 80020d74 <brelse+0xe4>
80020d14:	e583200c 	str	r2, [r3, #12]
    bcache.head.next->prev = b;
80020d18:	e30b30c4 	movw	r3, #45252	; 0xb0c4
80020d1c:	e348300a 	movt	r3, #32778	; 0x800a
80020d20:	e3012534 	movw	r2, #5428	; 0x1534
80020d24:	e7933002 	ldr	r3, [r3, r2]
80020d28:	e51b2008 	ldr	r2, [fp, #-8]
80020d2c:	e583200c 	str	r2, [r3, #12]
    bcache.head.next = b;
80020d30:	e30b30c4 	movw	r3, #45252	; 0xb0c4
80020d34:	e348300a 	movt	r3, #32778	; 0x800a
80020d38:	e3012534 	movw	r2, #5428	; 0x1534
80020d3c:	e51b1008 	ldr	r1, [fp, #-8]
80020d40:	e7831002 	str	r1, [r3, r2]

    b->flags &= ~B_BUSY;
80020d44:	e51b3008 	ldr	r3, [fp, #-8]
80020d48:	e5933000 	ldr	r3, [r3]
80020d4c:	e3c32001 	bic	r2, r3, #1
80020d50:	e51b3008 	ldr	r3, [fp, #-8]
80020d54:	e5832000 	str	r2, [r3]
    wakeup(b);
80020d58:	e51b0008 	ldr	r0, [fp, #-8]
80020d5c:	eb00143b 	bl	80025e50 <wakeup>

    release(&bcache.lock);
80020d60:	e30b00c4 	movw	r0, #45252	; 0xb0c4
80020d64:	e348000a 	movt	r0, #32778	; 0x800a
80020d68:	eb0014d1 	bl	800260b4 <release>
}
80020d6c:	e24bd004 	sub	sp, fp, #4
80020d70:	e8bd8800 	pop	{fp, pc}
80020d74:	800ac5e8 	.word	0x800ac5e8

80020d78 <get_mark>:

static struct kmem kmem;

// coversion between block id to mark and memory address
static inline struct mark* get_mark (int order, int idx)
{
80020d78:	e52db004 	push	{fp}		; (str fp, [sp, #-4]!)
80020d7c:	e28db000 	add	fp, sp, #0
80020d80:	e24dd00c 	sub	sp, sp, #12
80020d84:	e50b0008 	str	r0, [fp, #-8]
80020d88:	e50b100c 	str	r1, [fp, #-12]
    return (struct mark*)kmem.start + (kmem.orders[order - MIN_ORD].offset + idx);
80020d8c:	e51b3008 	ldr	r3, [fp, #-8]
80020d90:	e2432006 	sub	r2, r3, #6
80020d94:	e30c3800 	movw	r3, #51200	; 0xc800
80020d98:	e348300a 	movt	r3, #32778	; 0x800a
80020d9c:	e2822008 	add	r2, r2, #8
80020da0:	e3a01004 	mov	r1, #4
80020da4:	e1a02182 	lsl	r2, r2, #3
80020da8:	e0832002 	add	r2, r3, r2
80020dac:	e1a03001 	mov	r3, r1
80020db0:	e0823003 	add	r3, r2, r3
80020db4:	e5932000 	ldr	r2, [r3]
80020db8:	e51b300c 	ldr	r3, [fp, #-12]
80020dbc:	e0823003 	add	r3, r2, r3
80020dc0:	e1a02183 	lsl	r2, r3, #3
80020dc4:	e30c3800 	movw	r3, #51200	; 0xc800
80020dc8:	e348300a 	movt	r3, #32778	; 0x800a
80020dcc:	e5933034 	ldr	r3, [r3, #52]	; 0x34
80020dd0:	e0823003 	add	r3, r2, r3
}
80020dd4:	e1a00003 	mov	r0, r3
80020dd8:	e28bd000 	add	sp, fp, #0
80020ddc:	e8bd0800 	pop	{fp}
80020de0:	e12fff1e 	bx	lr

80020de4 <blkid2mem>:

static inline void* blkid2mem (int order, int blkid)
{
80020de4:	e52db004 	push	{fp}		; (str fp, [sp, #-4]!)
80020de8:	e28db000 	add	fp, sp, #0
80020dec:	e24dd00c 	sub	sp, sp, #12
80020df0:	e50b0008 	str	r0, [fp, #-8]
80020df4:	e50b100c 	str	r1, [fp, #-12]
    return (void*)(kmem.start_heap + (1 << order) * blkid);
80020df8:	e30c3800 	movw	r3, #51200	; 0xc800
80020dfc:	e348300a 	movt	r3, #32778	; 0x800a
80020e00:	e5932038 	ldr	r2, [r3, #56]	; 0x38
80020e04:	e51b100c 	ldr	r1, [fp, #-12]
80020e08:	e51b3008 	ldr	r3, [fp, #-8]
80020e0c:	e1a03311 	lsl	r3, r1, r3
80020e10:	e0823003 	add	r3, r2, r3
}
80020e14:	e1a00003 	mov	r0, r3
80020e18:	e28bd000 	add	sp, fp, #0
80020e1c:	e8bd0800 	pop	{fp}
80020e20:	e12fff1e 	bx	lr

80020e24 <mem2blkid>:

static inline int mem2blkid (int order, void *mem)
{
80020e24:	e52db004 	push	{fp}		; (str fp, [sp, #-4]!)
80020e28:	e28db000 	add	fp, sp, #0
80020e2c:	e24dd00c 	sub	sp, sp, #12
80020e30:	e50b0008 	str	r0, [fp, #-8]
80020e34:	e50b100c 	str	r1, [fp, #-12]
    return ((uint)mem - kmem.start_heap) >> order;
80020e38:	e51b200c 	ldr	r2, [fp, #-12]
80020e3c:	e30c3800 	movw	r3, #51200	; 0xc800
80020e40:	e348300a 	movt	r3, #32778	; 0x800a
80020e44:	e5933038 	ldr	r3, [r3, #56]	; 0x38
80020e48:	e0632002 	rsb	r2, r3, r2
80020e4c:	e51b3008 	ldr	r3, [fp, #-8]
80020e50:	e1a03332 	lsr	r3, r2, r3
}
80020e54:	e1a00003 	mov	r0, r3
80020e58:	e28bd000 	add	sp, fp, #0
80020e5c:	e8bd0800 	pop	{fp}
80020e60:	e12fff1e 	bx	lr

80020e64 <available>:

static inline int available (uint bitmap, int blk_id)
{
80020e64:	e52db004 	push	{fp}		; (str fp, [sp, #-4]!)
80020e68:	e28db000 	add	fp, sp, #0
80020e6c:	e24dd00c 	sub	sp, sp, #12
80020e70:	e50b0008 	str	r0, [fp, #-8]
80020e74:	e50b100c 	str	r1, [fp, #-12]
    return bitmap & (1 << (blk_id & 0x1F));
80020e78:	e51b300c 	ldr	r3, [fp, #-12]
80020e7c:	e203301f 	and	r3, r3, #31
80020e80:	e3a02001 	mov	r2, #1
80020e84:	e1a03312 	lsl	r3, r2, r3
80020e88:	e1a02003 	mov	r2, r3
80020e8c:	e51b3008 	ldr	r3, [fp, #-8]
80020e90:	e0023003 	and	r3, r2, r3
}
80020e94:	e1a00003 	mov	r0, r3
80020e98:	e28bd000 	add	sp, fp, #0
80020e9c:	e8bd0800 	pop	{fp}
80020ea0:	e12fff1e 	bx	lr

80020ea4 <kmem_init>:

void kmem_init (void)
{
80020ea4:	e92d4800 	push	{fp, lr}
80020ea8:	e28db004 	add	fp, sp, #4
    initlock(&kmem.lock, "kmem");
80020eac:	e30c0800 	movw	r0, #51200	; 0xc800
80020eb0:	e348000a 	movt	r0, #32778	; 0x800a
80020eb4:	e3091bf4 	movw	r1, #39924	; 0x9bf4
80020eb8:	e3481002 	movt	r1, #32770	; 0x8002
80020ebc:	eb001461 	bl	80026048 <initlock>
}
80020ec0:	e8bd8800 	pop	{fp, pc}

80020ec4 <kmem_init2>:

void kmem_init2(void *vstart, void *vend)
{
80020ec4:	e92d4800 	push	{fp, lr}
80020ec8:	e28db004 	add	fp, sp, #4
80020ecc:	e24dd028 	sub	sp, sp, #40	; 0x28
80020ed0:	e50b0028 	str	r0, [fp, #-40]	; 0xffffffd8
80020ed4:	e50b102c 	str	r1, [fp, #-44]	; 0xffffffd4
    uint32          total, n;
    uint            len;
    struct order    *ord;
    struct mark     *mk;
    
    kmem.start = (uint)vstart;
80020ed8:	e51b2028 	ldr	r2, [fp, #-40]	; 0xffffffd8
80020edc:	e30c3800 	movw	r3, #51200	; 0xc800
80020ee0:	e348300a 	movt	r3, #32778	; 0x800a
80020ee4:	e5832034 	str	r2, [r3, #52]	; 0x34
    kmem.end   = (uint)vend;
80020ee8:	e51b202c 	ldr	r2, [fp, #-44]	; 0xffffffd4
80020eec:	e30c3800 	movw	r3, #51200	; 0xc800
80020ef0:	e348300a 	movt	r3, #32778	; 0x800a
80020ef4:	e583203c 	str	r2, [r3, #60]	; 0x3c
    len = kmem.end - kmem.start;
80020ef8:	e30c3800 	movw	r3, #51200	; 0xc800
80020efc:	e348300a 	movt	r3, #32778	; 0x800a
80020f00:	e593203c 	ldr	r2, [r3, #60]	; 0x3c
80020f04:	e30c3800 	movw	r3, #51200	; 0xc800
80020f08:	e348300a 	movt	r3, #32778	; 0x800a
80020f0c:	e5933034 	ldr	r3, [r3, #52]	; 0x34
80020f10:	e0633002 	rsb	r3, r3, r2
80020f14:	e50b3018 	str	r3, [fp, #-24]	; 0xffffffe8

    // reserved memory at vstart for an array of marks (for all the orders)
    n = (len >> (MAX_ORD + 5)) + 1; // estimated # of marks for max order
80020f18:	e51b3018 	ldr	r3, [fp, #-24]	; 0xffffffe8
80020f1c:	e1a038a3 	lsr	r3, r3, #17
80020f20:	e2833001 	add	r3, r3, #1
80020f24:	e50b3014 	str	r3, [fp, #-20]	; 0xffffffec
    total = 0;
80020f28:	e3a03000 	mov	r3, #0
80020f2c:	e50b3010 	str	r3, [fp, #-16]
    
    for (i = N_ORD - 1; i >= 0; i--) {
80020f30:	e3a03006 	mov	r3, #6
80020f34:	e50b3008 	str	r3, [fp, #-8]
80020f38:	ea00002a 	b	80020fe8 <kmem_init2+0x124>
        ord = kmem.orders + i;
80020f3c:	e51b3008 	ldr	r3, [fp, #-8]
80020f40:	e1a02183 	lsl	r2, r3, #3
80020f44:	e59f312c 	ldr	r3, [pc, #300]	; 80021078 <kmem_init2+0x1b4>
80020f48:	e0823003 	add	r3, r2, r3
80020f4c:	e50b301c 	str	r3, [fp, #-28]	; 0xffffffe4
        ord->offset = total;
80020f50:	e51b301c 	ldr	r3, [fp, #-28]	; 0xffffffe4
80020f54:	e51b2010 	ldr	r2, [fp, #-16]
80020f58:	e5832004 	str	r2, [r3, #4]
        ord->head = NIL;
80020f5c:	e51b301c 	ldr	r3, [fp, #-28]	; 0xffffffe4
80020f60:	e30f2fff 	movw	r2, #65535	; 0xffff
80020f64:	e5832000 	str	r2, [r3]
        
        // set the bitmaps to mark all blocks not available
        for (j = 0; j < n; j++) {
80020f68:	e3a03000 	mov	r3, #0
80020f6c:	e50b300c 	str	r3, [fp, #-12]
80020f70:	ea00000e 	b	80020fb0 <kmem_init2+0xec>
            mk = get_mark(i + MIN_ORD, j);
80020f74:	e51b3008 	ldr	r3, [fp, #-8]
80020f78:	e2833006 	add	r3, r3, #6
80020f7c:	e1a00003 	mov	r0, r3
80020f80:	e51b100c 	ldr	r1, [fp, #-12]
80020f84:	ebffff7b 	bl	80020d78 <get_mark>
80020f88:	e50b0020 	str	r0, [fp, #-32]	; 0xffffffe0
            mk->lnks = LNKS(NIL, NIL);
80020f8c:	e51b3020 	ldr	r3, [fp, #-32]	; 0xffffffe0
80020f90:	e3e02000 	mvn	r2, #0
80020f94:	e5832000 	str	r2, [r3]
            mk->bitmap = 0;
80020f98:	e51b3020 	ldr	r3, [fp, #-32]	; 0xffffffe0
80020f9c:	e3a02000 	mov	r2, #0
80020fa0:	e5832004 	str	r2, [r3, #4]
        ord = kmem.orders + i;
        ord->offset = total;
        ord->head = NIL;
        
        // set the bitmaps to mark all blocks not available
        for (j = 0; j < n; j++) {
80020fa4:	e51b300c 	ldr	r3, [fp, #-12]
80020fa8:	e2833001 	add	r3, r3, #1
80020fac:	e50b300c 	str	r3, [fp, #-12]
80020fb0:	e51b200c 	ldr	r2, [fp, #-12]
80020fb4:	e51b3014 	ldr	r3, [fp, #-20]	; 0xffffffec
80020fb8:	e1520003 	cmp	r2, r3
80020fbc:	3affffec 	bcc	80020f74 <kmem_init2+0xb0>
            mk = get_mark(i + MIN_ORD, j);
            mk->lnks = LNKS(NIL, NIL);
            mk->bitmap = 0;
        }

        total += n;
80020fc0:	e51b2010 	ldr	r2, [fp, #-16]
80020fc4:	e51b3014 	ldr	r3, [fp, #-20]	; 0xffffffec
80020fc8:	e0823003 	add	r3, r2, r3
80020fcc:	e50b3010 	str	r3, [fp, #-16]
        n <<= 1;     // each order doubles required marks
80020fd0:	e51b3014 	ldr	r3, [fp, #-20]	; 0xffffffec
80020fd4:	e1a03083 	lsl	r3, r3, #1
80020fd8:	e50b3014 	str	r3, [fp, #-20]	; 0xffffffec

    // reserved memory at vstart for an array of marks (for all the orders)
    n = (len >> (MAX_ORD + 5)) + 1; // estimated # of marks for max order
    total = 0;
    
    for (i = N_ORD - 1; i >= 0; i--) {
80020fdc:	e51b3008 	ldr	r3, [fp, #-8]
80020fe0:	e2433001 	sub	r3, r3, #1
80020fe4:	e50b3008 	str	r3, [fp, #-8]
80020fe8:	e51b3008 	ldr	r3, [fp, #-8]
80020fec:	e3530000 	cmp	r3, #0
80020ff0:	aaffffd1 	bge	80020f3c <kmem_init2+0x78>
        total += n;
        n <<= 1;     // each order doubles required marks
    }

    // add all available memory to the highest order bucket
    kmem.start_heap = align_up(kmem.start + total * sizeof(*mk), 1 << MAX_ORD);
80020ff4:	e30c3800 	movw	r3, #51200	; 0xc800
80020ff8:	e348300a 	movt	r3, #32778	; 0x800a
80020ffc:	e5932034 	ldr	r2, [r3, #52]	; 0x34
80021000:	e51b3010 	ldr	r3, [fp, #-16]
80021004:	e1a03183 	lsl	r3, r3, #3
80021008:	e0823003 	add	r3, r2, r3
8002100c:	e2833eff 	add	r3, r3, #4080	; 0xff0
80021010:	e283300f 	add	r3, r3, #15
80021014:	e3c32eff 	bic	r2, r3, #4080	; 0xff0
80021018:	e3c2200f 	bic	r2, r2, #15
8002101c:	e30c3800 	movw	r3, #51200	; 0xc800
80021020:	e348300a 	movt	r3, #32778	; 0x800a
80021024:	e5832038 	str	r2, [r3, #56]	; 0x38
    
    for (i = kmem.start_heap; i < kmem.end; i += (1 << MAX_ORD)){
80021028:	e30c3800 	movw	r3, #51200	; 0xc800
8002102c:	e348300a 	movt	r3, #32778	; 0x800a
80021030:	e5933038 	ldr	r3, [r3, #56]	; 0x38
80021034:	e50b3008 	str	r3, [fp, #-8]
80021038:	ea000006 	b	80021058 <kmem_init2+0x194>
        kfree ((void*)i, MAX_ORD);
8002103c:	e51b3008 	ldr	r3, [fp, #-8]
80021040:	e1a00003 	mov	r0, r3
80021044:	e3a0100c 	mov	r1, #12
80021048:	eb000184 	bl	80021660 <kfree>
    }

    // add all available memory to the highest order bucket
    kmem.start_heap = align_up(kmem.start + total * sizeof(*mk), 1 << MAX_ORD);
    
    for (i = kmem.start_heap; i < kmem.end; i += (1 << MAX_ORD)){
8002104c:	e51b3008 	ldr	r3, [fp, #-8]
80021050:	e2833a01 	add	r3, r3, #4096	; 0x1000
80021054:	e50b3008 	str	r3, [fp, #-8]
80021058:	e51b2008 	ldr	r2, [fp, #-8]
8002105c:	e30c3800 	movw	r3, #51200	; 0xc800
80021060:	e348300a 	movt	r3, #32778	; 0x800a
80021064:	e593303c 	ldr	r3, [r3, #60]	; 0x3c
80021068:	e1520003 	cmp	r2, r3
8002106c:	3afffff2 	bcc	8002103c <kmem_init2+0x178>
        kfree ((void*)i, MAX_ORD);
    }
}
80021070:	e24bd004 	sub	sp, fp, #4
80021074:	e8bd8800 	pop	{fp, pc}
80021078:	800ac840 	.word	0x800ac840

8002107c <unmark_blk>:

// mark a block as unavailable
static void unmark_blk (int order, int blk_id)
{
8002107c:	e92d4800 	push	{fp, lr}
80021080:	e28db004 	add	fp, sp, #4
80021084:	e24dd020 	sub	sp, sp, #32
80021088:	e50b0020 	str	r0, [fp, #-32]	; 0xffffffe0
8002108c:	e50b1024 	str	r1, [fp, #-36]	; 0xffffffdc
    struct mark     *mk, *p;
    struct order    *ord;
    int             prev, next;

    ord = &kmem.orders[order - MIN_ORD];
80021090:	e51b3020 	ldr	r3, [fp, #-32]	; 0xffffffe0
80021094:	e2433006 	sub	r3, r3, #6
80021098:	e1a02183 	lsl	r2, r3, #3
8002109c:	e59f3178 	ldr	r3, [pc, #376]	; 8002121c <unmark_blk+0x1a0>
800210a0:	e0823003 	add	r3, r2, r3
800210a4:	e50b3008 	str	r3, [fp, #-8]
    mk  = get_mark (order, blk_id >> 5);
800210a8:	e51b3024 	ldr	r3, [fp, #-36]	; 0xffffffdc
800210ac:	e1a032c3 	asr	r3, r3, #5
800210b0:	e51b0020 	ldr	r0, [fp, #-32]	; 0xffffffe0
800210b4:	e1a01003 	mov	r1, r3
800210b8:	ebffff2e 	bl	80020d78 <get_mark>
800210bc:	e50b000c 	str	r0, [fp, #-12]

    // clear the bit in the bitmap
    if (!available(mk->bitmap, blk_id)) {
800210c0:	e51b300c 	ldr	r3, [fp, #-12]
800210c4:	e5933004 	ldr	r3, [r3, #4]
800210c8:	e1a00003 	mov	r0, r3
800210cc:	e51b1024 	ldr	r1, [fp, #-36]	; 0xffffffdc
800210d0:	ebffff63 	bl	80020e64 <available>
800210d4:	e1a03000 	mov	r3, r0
800210d8:	e3530000 	cmp	r3, #0
800210dc:	1a000002 	bne	800210ec <unmark_blk+0x70>
        panic ("double alloc\n");
800210e0:	e3090bfc 	movw	r0, #39932	; 0x9bfc
800210e4:	e3480002 	movt	r0, #32770	; 0x8002
800210e8:	eb0002b3 	bl	80021bbc <panic>
    }

    mk->bitmap &= ~(1 << (blk_id & 0x1F));
800210ec:	e51b300c 	ldr	r3, [fp, #-12]
800210f0:	e5932004 	ldr	r2, [r3, #4]
800210f4:	e51b3024 	ldr	r3, [fp, #-36]	; 0xffffffdc
800210f8:	e203301f 	and	r3, r3, #31
800210fc:	e3a01001 	mov	r1, #1
80021100:	e1a03311 	lsl	r3, r1, r3
80021104:	e1e03003 	mvn	r3, r3
80021108:	e0022003 	and	r2, r2, r3
8002110c:	e51b300c 	ldr	r3, [fp, #-12]
80021110:	e5832004 	str	r2, [r3, #4]
    
    // if it's the last block in the bitmap, delete from the list
    if (mk->bitmap == 0) {
80021114:	e51b300c 	ldr	r3, [fp, #-12]
80021118:	e5933004 	ldr	r3, [r3, #4]
8002111c:	e3530000 	cmp	r3, #0
80021120:	1a00003b 	bne	80021214 <unmark_blk+0x198>
        blk_id >>= 5;
80021124:	e51b3024 	ldr	r3, [fp, #-36]	; 0xffffffdc
80021128:	e1a032c3 	asr	r3, r3, #5
8002112c:	e50b3024 	str	r3, [fp, #-36]	; 0xffffffdc
        
        prev = PRE_LNK(mk->lnks);
80021130:	e51b300c 	ldr	r3, [fp, #-12]
80021134:	e5933000 	ldr	r3, [r3]
80021138:	e1a03823 	lsr	r3, r3, #16
8002113c:	e50b3010 	str	r3, [fp, #-16]
        next = NEXT_LNK(mk->lnks);
80021140:	e51b300c 	ldr	r3, [fp, #-12]
80021144:	e5933000 	ldr	r3, [r3]
80021148:	e1a03803 	lsl	r3, r3, #16
8002114c:	e1a03823 	lsr	r3, r3, #16
80021150:	e50b3014 	str	r3, [fp, #-20]	; 0xffffffec

        if (prev != NIL) {
80021154:	e51b2010 	ldr	r2, [fp, #-16]
80021158:	e30f3fff 	movw	r3, #65535	; 0xffff
8002115c:	e1520003 	cmp	r2, r3
80021160:	0a00000e 	beq	800211a0 <unmark_blk+0x124>
            p = get_mark(order, prev);
80021164:	e51b0020 	ldr	r0, [fp, #-32]	; 0xffffffe0
80021168:	e51b1010 	ldr	r1, [fp, #-16]
8002116c:	ebffff01 	bl	80020d78 <get_mark>
80021170:	e50b0018 	str	r0, [fp, #-24]	; 0xffffffe8
            p->lnks = LNKS(PRE_LNK(p->lnks), next);
80021174:	e51b3018 	ldr	r3, [fp, #-24]	; 0xffffffe8
80021178:	e5933000 	ldr	r3, [r3]
8002117c:	e1a02823 	lsr	r2, r3, #16
80021180:	e1a02802 	lsl	r2, r2, #16
80021184:	e51b3014 	ldr	r3, [fp, #-20]	; 0xffffffec
80021188:	e1a03803 	lsl	r3, r3, #16
8002118c:	e1a03823 	lsr	r3, r3, #16
80021190:	e1822003 	orr	r2, r2, r3
80021194:	e51b3018 	ldr	r3, [fp, #-24]	; 0xffffffe8
80021198:	e5832000 	str	r2, [r3]
8002119c:	ea000007 	b	800211c0 <unmark_blk+0x144>
            
        } else if (ord->head == blk_id) {
800211a0:	e51b3008 	ldr	r3, [fp, #-8]
800211a4:	e5932000 	ldr	r2, [r3]
800211a8:	e51b3024 	ldr	r3, [fp, #-36]	; 0xffffffdc
800211ac:	e1520003 	cmp	r2, r3
800211b0:	1a000002 	bne	800211c0 <unmark_blk+0x144>
            // if we are the first in the link
            ord->head = next;
800211b4:	e51b2014 	ldr	r2, [fp, #-20]	; 0xffffffec
800211b8:	e51b3008 	ldr	r3, [fp, #-8]
800211bc:	e5832000 	str	r2, [r3]
        }

        if (next != NIL) {
800211c0:	e51b2014 	ldr	r2, [fp, #-20]	; 0xffffffec
800211c4:	e30f3fff 	movw	r3, #65535	; 0xffff
800211c8:	e1520003 	cmp	r2, r3
800211cc:	0a00000d 	beq	80021208 <unmark_blk+0x18c>
            p = get_mark(order, next);
800211d0:	e51b0020 	ldr	r0, [fp, #-32]	; 0xffffffe0
800211d4:	e51b1014 	ldr	r1, [fp, #-20]	; 0xffffffec
800211d8:	ebfffee6 	bl	80020d78 <get_mark>
800211dc:	e50b0018 	str	r0, [fp, #-24]	; 0xffffffe8
            p->lnks = LNKS(prev, NEXT_LNK(p->lnks));
800211e0:	e51b3010 	ldr	r3, [fp, #-16]
800211e4:	e1a03803 	lsl	r3, r3, #16
800211e8:	e1a02003 	mov	r2, r3
800211ec:	e51b3018 	ldr	r3, [fp, #-24]	; 0xffffffe8
800211f0:	e5933000 	ldr	r3, [r3]
800211f4:	e1a03803 	lsl	r3, r3, #16
800211f8:	e1a03823 	lsr	r3, r3, #16
800211fc:	e1822003 	orr	r2, r2, r3
80021200:	e51b3018 	ldr	r3, [fp, #-24]	; 0xffffffe8
80021204:	e5832000 	str	r2, [r3]
        }

        mk->lnks = LNKS(NIL, NIL);
80021208:	e51b300c 	ldr	r3, [fp, #-12]
8002120c:	e3e02000 	mvn	r2, #0
80021210:	e5832000 	str	r2, [r3]
    }
}
80021214:	e24bd004 	sub	sp, fp, #4
80021218:	e8bd8800 	pop	{fp, pc}
8002121c:	800ac840 	.word	0x800ac840

80021220 <mark_blk>:

// mark a block as available
static void mark_blk (int order, int blk_id)
{
80021220:	e92d4800 	push	{fp, lr}
80021224:	e28db004 	add	fp, sp, #4
80021228:	e24dd018 	sub	sp, sp, #24
8002122c:	e50b0018 	str	r0, [fp, #-24]	; 0xffffffe8
80021230:	e50b101c 	str	r1, [fp, #-28]	; 0xffffffe4
    struct mark     *mk, *p;
    struct order    *ord;
    int             insert;
    
    ord = &kmem.orders[order - MIN_ORD];
80021234:	e51b3018 	ldr	r3, [fp, #-24]	; 0xffffffe8
80021238:	e2433006 	sub	r3, r3, #6
8002123c:	e1a02183 	lsl	r2, r3, #3
80021240:	e59f311c 	ldr	r3, [pc, #284]	; 80021364 <mark_blk+0x144>
80021244:	e0823003 	add	r3, r2, r3
80021248:	e50b3008 	str	r3, [fp, #-8]
    mk  = get_mark (order, blk_id >> 5);
8002124c:	e51b301c 	ldr	r3, [fp, #-28]	; 0xffffffe4
80021250:	e1a032c3 	asr	r3, r3, #5
80021254:	e51b0018 	ldr	r0, [fp, #-24]	; 0xffffffe8
80021258:	e1a01003 	mov	r1, r3
8002125c:	ebfffec5 	bl	80020d78 <get_mark>
80021260:	e50b000c 	str	r0, [fp, #-12]

    // whether we need to insert it into the list
    insert = (mk->bitmap == 0);
80021264:	e51b300c 	ldr	r3, [fp, #-12]
80021268:	e5933004 	ldr	r3, [r3, #4]
8002126c:	e3530000 	cmp	r3, #0
80021270:	13a03000 	movne	r3, #0
80021274:	03a03001 	moveq	r3, #1
80021278:	e50b3010 	str	r3, [fp, #-16]

    // clear the bit map
    if (available(mk->bitmap, blk_id)) {
8002127c:	e51b300c 	ldr	r3, [fp, #-12]
80021280:	e5933004 	ldr	r3, [r3, #4]
80021284:	e1a00003 	mov	r0, r3
80021288:	e51b101c 	ldr	r1, [fp, #-28]	; 0xffffffe4
8002128c:	ebfffef4 	bl	80020e64 <available>
80021290:	e1a03000 	mov	r3, r0
80021294:	e3530000 	cmp	r3, #0
80021298:	0a000002 	beq	800212a8 <mark_blk+0x88>
        panic ("double free\n");
8002129c:	e3090c0c 	movw	r0, #39948	; 0x9c0c
800212a0:	e3480002 	movt	r0, #32770	; 0x8002
800212a4:	eb000244 	bl	80021bbc <panic>
    }
    
    mk->bitmap |= (1 << (blk_id & 0x1F));
800212a8:	e51b300c 	ldr	r3, [fp, #-12]
800212ac:	e5932004 	ldr	r2, [r3, #4]
800212b0:	e51b301c 	ldr	r3, [fp, #-28]	; 0xffffffe4
800212b4:	e203301f 	and	r3, r3, #31
800212b8:	e3a01001 	mov	r1, #1
800212bc:	e1a03311 	lsl	r3, r1, r3
800212c0:	e1822003 	orr	r2, r2, r3
800212c4:	e51b300c 	ldr	r3, [fp, #-12]
800212c8:	e5832004 	str	r2, [r3, #4]
    
    // just insert it to the head, no need to keep the list ordered
    if (insert) {
800212cc:	e51b3010 	ldr	r3, [fp, #-16]
800212d0:	e3530000 	cmp	r3, #0
800212d4:	0a000020 	beq	8002135c <mark_blk+0x13c>
        blk_id >>= 5;
800212d8:	e51b301c 	ldr	r3, [fp, #-28]	; 0xffffffe4
800212dc:	e1a032c3 	asr	r3, r3, #5
800212e0:	e50b301c 	str	r3, [fp, #-28]	; 0xffffffe4
        mk->lnks = LNKS(NIL, ord->head);
800212e4:	e51b3008 	ldr	r3, [fp, #-8]
800212e8:	e5933000 	ldr	r3, [r3]
800212ec:	e1e03803 	mvn	r3, r3, lsl #16
800212f0:	e1e03823 	mvn	r3, r3, lsr #16
800212f4:	e51b200c 	ldr	r2, [fp, #-12]
800212f8:	e5823000 	str	r3, [r2]

        // fix the pre pointer of the next mark
        if (ord->head != NIL) {
800212fc:	e51b3008 	ldr	r3, [fp, #-8]
80021300:	e5932000 	ldr	r2, [r3]
80021304:	e30f3fff 	movw	r3, #65535	; 0xffff
80021308:	e1520003 	cmp	r2, r3
8002130c:	0a00000f 	beq	80021350 <mark_blk+0x130>
            p = get_mark(order, ord->head);
80021310:	e51b3008 	ldr	r3, [fp, #-8]
80021314:	e5933000 	ldr	r3, [r3]
80021318:	e51b0018 	ldr	r0, [fp, #-24]	; 0xffffffe8
8002131c:	e1a01003 	mov	r1, r3
80021320:	ebfffe94 	bl	80020d78 <get_mark>
80021324:	e50b0014 	str	r0, [fp, #-20]	; 0xffffffec
            p->lnks = LNKS(blk_id, NEXT_LNK(p->lnks));
80021328:	e51b301c 	ldr	r3, [fp, #-28]	; 0xffffffe4
8002132c:	e1a03803 	lsl	r3, r3, #16
80021330:	e1a02003 	mov	r2, r3
80021334:	e51b3014 	ldr	r3, [fp, #-20]	; 0xffffffec
80021338:	e5933000 	ldr	r3, [r3]
8002133c:	e1a03803 	lsl	r3, r3, #16
80021340:	e1a03823 	lsr	r3, r3, #16
80021344:	e1822003 	orr	r2, r2, r3
80021348:	e51b3014 	ldr	r3, [fp, #-20]	; 0xffffffec
8002134c:	e5832000 	str	r2, [r3]
        }
        
        ord->head = blk_id;
80021350:	e51b201c 	ldr	r2, [fp, #-28]	; 0xffffffe4
80021354:	e51b3008 	ldr	r3, [fp, #-8]
80021358:	e5832000 	str	r2, [r3]
    }
}
8002135c:	e24bd004 	sub	sp, fp, #4
80021360:	e8bd8800 	pop	{fp, pc}
80021364:	800ac840 	.word	0x800ac840

80021368 <get_blk>:

// get a block
static void* get_blk (int order)
{
80021368:	e92d4800 	push	{fp, lr}
8002136c:	e28db004 	add	fp, sp, #4
80021370:	e24dd018 	sub	sp, sp, #24
80021374:	e50b0018 	str	r0, [fp, #-24]	; 0xffffffe8
    struct mark *mk;
    int blk_id;
    int i;
    struct order *ord;

    ord = &kmem.orders[order - MIN_ORD];
80021378:	e51b3018 	ldr	r3, [fp, #-24]	; 0xffffffe8
8002137c:	e2433006 	sub	r3, r3, #6
80021380:	e1a02183 	lsl	r2, r3, #3
80021384:	e59f30c4 	ldr	r3, [pc, #196]	; 80021450 <get_blk+0xe8>
80021388:	e0823003 	add	r3, r2, r3
8002138c:	e50b300c 	str	r3, [fp, #-12]
    mk = get_mark(order, ord->head);
80021390:	e51b300c 	ldr	r3, [fp, #-12]
80021394:	e5933000 	ldr	r3, [r3]
80021398:	e51b0018 	ldr	r0, [fp, #-24]	; 0xffffffe8
8002139c:	e1a01003 	mov	r1, r3
800213a0:	ebfffe74 	bl	80020d78 <get_mark>
800213a4:	e50b0010 	str	r0, [fp, #-16]

    if (mk->bitmap == 0) {
800213a8:	e51b3010 	ldr	r3, [fp, #-16]
800213ac:	e5933004 	ldr	r3, [r3, #4]
800213b0:	e3530000 	cmp	r3, #0
800213b4:	1a000002 	bne	800213c4 <get_blk+0x5c>
        panic ("empty mark in the list\n");
800213b8:	e3090c1c 	movw	r0, #39964	; 0x9c1c
800213bc:	e3480002 	movt	r0, #32770	; 0x8002
800213c0:	eb0001fd 	bl	80021bbc <panic>
    }

    for (i = 0; i < 32; i++) {
800213c4:	e3a03000 	mov	r3, #0
800213c8:	e50b3008 	str	r3, [fp, #-8]
800213cc:	ea000018 	b	80021434 <get_blk+0xcc>
        if (mk->bitmap & (1 << i)) {
800213d0:	e51b3010 	ldr	r3, [fp, #-16]
800213d4:	e5932004 	ldr	r2, [r3, #4]
800213d8:	e3a01001 	mov	r1, #1
800213dc:	e51b3008 	ldr	r3, [fp, #-8]
800213e0:	e1a03311 	lsl	r3, r1, r3
800213e4:	e0023003 	and	r3, r2, r3
800213e8:	e3530000 	cmp	r3, #0
800213ec:	0a00000d 	beq	80021428 <get_blk+0xc0>
            blk_id = ord->head * 32 + i;
800213f0:	e51b300c 	ldr	r3, [fp, #-12]
800213f4:	e5933000 	ldr	r3, [r3]
800213f8:	e1a02283 	lsl	r2, r3, #5
800213fc:	e51b3008 	ldr	r3, [fp, #-8]
80021400:	e0823003 	add	r3, r2, r3
80021404:	e50b3014 	str	r3, [fp, #-20]	; 0xffffffec
            unmark_blk(order, blk_id);
80021408:	e51b0018 	ldr	r0, [fp, #-24]	; 0xffffffe8
8002140c:	e51b1014 	ldr	r1, [fp, #-20]	; 0xffffffec
80021410:	ebffff19 	bl	8002107c <unmark_blk>
            
            return blkid2mem(order, blk_id);
80021414:	e51b0018 	ldr	r0, [fp, #-24]	; 0xffffffe8
80021418:	e51b1014 	ldr	r1, [fp, #-20]	; 0xffffffec
8002141c:	ebfffe70 	bl	80020de4 <blkid2mem>
80021420:	e1a03000 	mov	r3, r0
80021424:	ea000006 	b	80021444 <get_blk+0xdc>

    if (mk->bitmap == 0) {
        panic ("empty mark in the list\n");
    }

    for (i = 0; i < 32; i++) {
80021428:	e51b3008 	ldr	r3, [fp, #-8]
8002142c:	e2833001 	add	r3, r3, #1
80021430:	e50b3008 	str	r3, [fp, #-8]
80021434:	e51b3008 	ldr	r3, [fp, #-8]
80021438:	e353001f 	cmp	r3, #31
8002143c:	daffffe3 	ble	800213d0 <get_blk+0x68>
            
            return blkid2mem(order, blk_id);
        }
    }

    return NULL;
80021440:	e3a03000 	mov	r3, #0
}
80021444:	e1a00003 	mov	r0, r3
80021448:	e24bd004 	sub	sp, fp, #4
8002144c:	e8bd8800 	pop	{fp, pc}
80021450:	800ac840 	.word	0x800ac840

80021454 <_kmalloc>:

void _kfree (void *mem, int order);


static void *_kmalloc (int order)
{
80021454:	e92d4800 	push	{fp, lr}
80021458:	e28db004 	add	fp, sp, #4
8002145c:	e24dd010 	sub	sp, sp, #16
80021460:	e50b0010 	str	r0, [fp, #-16]
    struct order *ord;
    uint8         *up;

    ord = &kmem.orders[order - MIN_ORD];
80021464:	e51b3010 	ldr	r3, [fp, #-16]
80021468:	e2433006 	sub	r3, r3, #6
8002146c:	e1a02183 	lsl	r2, r3, #3
80021470:	e59f308c 	ldr	r3, [pc, #140]	; 80021504 <_kmalloc+0xb0>
80021474:	e0823003 	add	r3, r2, r3
80021478:	e50b300c 	str	r3, [fp, #-12]
    up  = NULL;
8002147c:	e3a03000 	mov	r3, #0
80021480:	e50b3008 	str	r3, [fp, #-8]
    
    if (ord->head != NIL) {
80021484:	e51b300c 	ldr	r3, [fp, #-12]
80021488:	e5932000 	ldr	r2, [r3]
8002148c:	e30f3fff 	movw	r3, #65535	; 0xffff
80021490:	e1520003 	cmp	r2, r3
80021494:	0a000003 	beq	800214a8 <_kmalloc+0x54>
        up = get_blk(order);
80021498:	e51b0010 	ldr	r0, [fp, #-16]
8002149c:	ebffffb1 	bl	80021368 <get_blk>
800214a0:	e50b0008 	str	r0, [fp, #-8]
800214a4:	ea000012 	b	800214f4 <_kmalloc+0xa0>
        
    } else if (order < MAX_ORD){
800214a8:	e51b3010 	ldr	r3, [fp, #-16]
800214ac:	e353000b 	cmp	r3, #11
800214b0:	ca00000f 	bgt	800214f4 <_kmalloc+0xa0>
        // if currently no block available, try to split a parent
        up = _kmalloc (order + 1);
800214b4:	e51b3010 	ldr	r3, [fp, #-16]
800214b8:	e2833001 	add	r3, r3, #1
800214bc:	e1a00003 	mov	r0, r3
800214c0:	ebffffe3 	bl	80021454 <_kmalloc>
800214c4:	e50b0008 	str	r0, [fp, #-8]

        if (up != NULL) {
800214c8:	e51b3008 	ldr	r3, [fp, #-8]
800214cc:	e3530000 	cmp	r3, #0
800214d0:	0a000007 	beq	800214f4 <_kmalloc+0xa0>
            _kfree (up + (1 << order), order);
800214d4:	e3a02001 	mov	r2, #1
800214d8:	e51b3010 	ldr	r3, [fp, #-16]
800214dc:	e1a03312 	lsl	r3, r2, r3
800214e0:	e51b2008 	ldr	r2, [fp, #-8]
800214e4:	e0823003 	add	r3, r2, r3
800214e8:	e1a00003 	mov	r0, r3
800214ec:	e51b1010 	ldr	r1, [fp, #-16]
800214f0:	eb00001e 	bl	80021570 <_kfree>
        }
    }

    return up;
800214f4:	e51b3008 	ldr	r3, [fp, #-8]
}
800214f8:	e1a00003 	mov	r0, r3
800214fc:	e24bd004 	sub	sp, fp, #4
80021500:	e8bd8800 	pop	{fp, pc}
80021504:	800ac840 	.word	0x800ac840

80021508 <kmalloc>:

// allocate memory that has the size of (1 << order)
void *kmalloc (int order)
{
80021508:	e92d4800 	push	{fp, lr}
8002150c:	e28db004 	add	fp, sp, #4
80021510:	e24dd010 	sub	sp, sp, #16
80021514:	e50b0010 	str	r0, [fp, #-16]
    uint8         *up;

    if ((order > MAX_ORD) || (order < MIN_ORD)) {
80021518:	e51b3010 	ldr	r3, [fp, #-16]
8002151c:	e353000c 	cmp	r3, #12
80021520:	ca000002 	bgt	80021530 <kmalloc+0x28>
80021524:	e51b3010 	ldr	r3, [fp, #-16]
80021528:	e3530005 	cmp	r3, #5
8002152c:	ca000002 	bgt	8002153c <kmalloc+0x34>
        panic("kmalloc: order out of range\n");
80021530:	e3090c34 	movw	r0, #39988	; 0x9c34
80021534:	e3480002 	movt	r0, #32770	; 0x8002
80021538:	eb00019f 	bl	80021bbc <panic>
    }

    acquire(&kmem.lock);
8002153c:	e30c0800 	movw	r0, #51200	; 0xc800
80021540:	e348000a 	movt	r0, #32778	; 0x800a
80021544:	eb0012d0 	bl	8002608c <acquire>
    up = _kmalloc(order);
80021548:	e51b0010 	ldr	r0, [fp, #-16]
8002154c:	ebffffc0 	bl	80021454 <_kmalloc>
80021550:	e50b0008 	str	r0, [fp, #-8]
    release(&kmem.lock);
80021554:	e30c0800 	movw	r0, #51200	; 0xc800
80021558:	e348000a 	movt	r0, #32778	; 0x800a
8002155c:	eb0012d4 	bl	800260b4 <release>

    return up;
80021560:	e51b3008 	ldr	r3, [fp, #-8]
}
80021564:	e1a00003 	mov	r0, r3
80021568:	e24bd004 	sub	sp, fp, #4
8002156c:	e8bd8800 	pop	{fp, pc}

80021570 <_kfree>:

void _kfree (void *mem, int order)
{
80021570:	e92d4800 	push	{fp, lr}
80021574:	e28db004 	add	fp, sp, #4
80021578:	e24dd018 	sub	sp, sp, #24
8002157c:	e50b0018 	str	r0, [fp, #-24]	; 0xffffffe8
80021580:	e50b101c 	str	r1, [fp, #-28]	; 0xffffffe4
    int blk_id, buddy_id;
    struct mark *mk;

    blk_id = mem2blkid(order, mem);
80021584:	e51b001c 	ldr	r0, [fp, #-28]	; 0xffffffe4
80021588:	e51b1018 	ldr	r1, [fp, #-24]	; 0xffffffe8
8002158c:	ebfffe24 	bl	80020e24 <mem2blkid>
80021590:	e50b0008 	str	r0, [fp, #-8]
    mk = get_mark(order, blk_id >> 5);
80021594:	e51b3008 	ldr	r3, [fp, #-8]
80021598:	e1a032c3 	asr	r3, r3, #5
8002159c:	e51b001c 	ldr	r0, [fp, #-28]	; 0xffffffe4
800215a0:	e1a01003 	mov	r1, r3
800215a4:	ebfffdf3 	bl	80020d78 <get_mark>
800215a8:	e50b000c 	str	r0, [fp, #-12]

    if (available(mk->bitmap, blk_id)) {
800215ac:	e51b300c 	ldr	r3, [fp, #-12]
800215b0:	e5933004 	ldr	r3, [r3, #4]
800215b4:	e1a00003 	mov	r0, r3
800215b8:	e51b1008 	ldr	r1, [fp, #-8]
800215bc:	ebfffe28 	bl	80020e64 <available>
800215c0:	e1a03000 	mov	r3, r0
800215c4:	e3530000 	cmp	r3, #0
800215c8:	0a000002 	beq	800215d8 <_kfree+0x68>
        panic ("kfree: double free");
800215cc:	e3090c54 	movw	r0, #40020	; 0x9c54
800215d0:	e3480002 	movt	r0, #32770	; 0x8002
800215d4:	eb000178 	bl	80021bbc <panic>
    }

    buddy_id = blk_id ^ 0x0001; // blk_id and buddy_id differs in the last bit
800215d8:	e51b3008 	ldr	r3, [fp, #-8]
800215dc:	e2233001 	eor	r3, r3, #1
800215e0:	e50b3010 	str	r3, [fp, #-16]
                                // buddy must be in the same bit map
    if (!available(mk->bitmap, buddy_id) || (order == MAX_ORD)) {
800215e4:	e51b300c 	ldr	r3, [fp, #-12]
800215e8:	e5933004 	ldr	r3, [r3, #4]
800215ec:	e1a00003 	mov	r0, r3
800215f0:	e51b1010 	ldr	r1, [fp, #-16]
800215f4:	ebfffe1a 	bl	80020e64 <available>
800215f8:	e1a03000 	mov	r3, r0
800215fc:	e3530000 	cmp	r3, #0
80021600:	0a000002 	beq	80021610 <_kfree+0xa0>
80021604:	e51b301c 	ldr	r3, [fp, #-28]	; 0xffffffe4
80021608:	e353000c 	cmp	r3, #12
8002160c:	1a000003 	bne	80021620 <_kfree+0xb0>
        mark_blk(order, blk_id);
80021610:	e51b001c 	ldr	r0, [fp, #-28]	; 0xffffffe4
80021614:	e51b1008 	ldr	r1, [fp, #-8]
80021618:	ebffff00 	bl	80021220 <mark_blk>
8002161c:	ea00000d 	b	80021658 <_kfree+0xe8>
    } else {
        // our buddy is also free, merge it
        unmark_blk (order, buddy_id);
80021620:	e51b001c 	ldr	r0, [fp, #-28]	; 0xffffffe4
80021624:	e51b1010 	ldr	r1, [fp, #-16]
80021628:	ebfffe93 	bl	8002107c <unmark_blk>
        _kfree (blkid2mem(order, blk_id & ~0x0001), order+1);
8002162c:	e51b3008 	ldr	r3, [fp, #-8]
80021630:	e3c33001 	bic	r3, r3, #1
80021634:	e51b001c 	ldr	r0, [fp, #-28]	; 0xffffffe4
80021638:	e1a01003 	mov	r1, r3
8002163c:	ebfffde8 	bl	80020de4 <blkid2mem>
80021640:	e1a02000 	mov	r2, r0
80021644:	e51b301c 	ldr	r3, [fp, #-28]	; 0xffffffe4
80021648:	e2833001 	add	r3, r3, #1
8002164c:	e1a00002 	mov	r0, r2
80021650:	e1a01003 	mov	r1, r3
80021654:	ebffffc5 	bl	80021570 <_kfree>
    }
}
80021658:	e24bd004 	sub	sp, fp, #4
8002165c:	e8bd8800 	pop	{fp, pc}

80021660 <kfree>:

// free kernel memory, we require order parameter here to avoid
// storing size info somewhere which might break the alignment
void kfree (void *mem, int order)
{
80021660:	e92d4800 	push	{fp, lr}
80021664:	e28db004 	add	fp, sp, #4
80021668:	e24dd008 	sub	sp, sp, #8
8002166c:	e50b0008 	str	r0, [fp, #-8]
80021670:	e50b100c 	str	r1, [fp, #-12]
    if ((order > MAX_ORD) || (order < MIN_ORD) || (uint)mem & ((1<<order) -1)) {
80021674:	e51b300c 	ldr	r3, [fp, #-12]
80021678:	e353000c 	cmp	r3, #12
8002167c:	ca00000b 	bgt	800216b0 <kfree+0x50>
80021680:	e51b300c 	ldr	r3, [fp, #-12]
80021684:	e3530005 	cmp	r3, #5
80021688:	da000008 	ble	800216b0 <kfree+0x50>
8002168c:	e3a02001 	mov	r2, #1
80021690:	e51b300c 	ldr	r3, [fp, #-12]
80021694:	e1a03312 	lsl	r3, r2, r3
80021698:	e2433001 	sub	r3, r3, #1
8002169c:	e1a02003 	mov	r2, r3
800216a0:	e51b3008 	ldr	r3, [fp, #-8]
800216a4:	e0023003 	and	r3, r2, r3
800216a8:	e3530000 	cmp	r3, #0
800216ac:	0a000002 	beq	800216bc <kfree+0x5c>
        panic("kfree: order out of range or memory unaligned\n");
800216b0:	e3090c68 	movw	r0, #40040	; 0x9c68
800216b4:	e3480002 	movt	r0, #32770	; 0x8002
800216b8:	eb00013f 	bl	80021bbc <panic>
    }

    acquire(&kmem.lock);
800216bc:	e30c0800 	movw	r0, #51200	; 0xc800
800216c0:	e348000a 	movt	r0, #32778	; 0x800a
800216c4:	eb001270 	bl	8002608c <acquire>
    _kfree(mem, order);
800216c8:	e51b0008 	ldr	r0, [fp, #-8]
800216cc:	e51b100c 	ldr	r1, [fp, #-12]
800216d0:	ebffffa6 	bl	80021570 <_kfree>
    release(&kmem.lock);
800216d4:	e30c0800 	movw	r0, #51200	; 0xc800
800216d8:	e348000a 	movt	r0, #32778	; 0x800a
800216dc:	eb001274 	bl	800260b4 <release>
}
800216e0:	e24bd004 	sub	sp, fp, #4
800216e4:	e8bd8800 	pop	{fp, pc}

800216e8 <free_page>:

// free a page
void free_page(void *v)
{
800216e8:	e92d4800 	push	{fp, lr}
800216ec:	e28db004 	add	fp, sp, #4
800216f0:	e24dd008 	sub	sp, sp, #8
800216f4:	e50b0008 	str	r0, [fp, #-8]
    kfree (v, PTE_SHIFT);
800216f8:	e51b0008 	ldr	r0, [fp, #-8]
800216fc:	e3a0100c 	mov	r1, #12
80021700:	ebffffd6 	bl	80021660 <kfree>
}
80021704:	e24bd004 	sub	sp, fp, #4
80021708:	e8bd8800 	pop	{fp, pc}

8002170c <alloc_page>:

// allocate a page
void* alloc_page (void)
{
8002170c:	e92d4800 	push	{fp, lr}
80021710:	e28db004 	add	fp, sp, #4
    return kmalloc (PTE_SHIFT);
80021714:	e3a0000c 	mov	r0, #12
80021718:	ebffff7a 	bl	80021508 <kmalloc>
8002171c:	e1a03000 	mov	r3, r0
}
80021720:	e1a00003 	mov	r0, r3
80021724:	e8bd8800 	pop	{fp, pc}

80021728 <get_order>:

// round up power of 2, then get the order
//   http://graphics.stanford.edu/~seander/bithacks.html#RoundUpPowerOf2
int get_order (uint32 v)
{
80021728:	e92d4800 	push	{fp, lr}
8002172c:	e28db004 	add	fp, sp, #4
80021730:	e24dd010 	sub	sp, sp, #16
80021734:	e50b0010 	str	r0, [fp, #-16]
    uint32 ord;
    
    v--;
80021738:	e51b3010 	ldr	r3, [fp, #-16]
8002173c:	e2433001 	sub	r3, r3, #1
80021740:	e50b3010 	str	r3, [fp, #-16]
    v |= v >> 1;
80021744:	e51b3010 	ldr	r3, [fp, #-16]
80021748:	e1a030a3 	lsr	r3, r3, #1
8002174c:	e51b2010 	ldr	r2, [fp, #-16]
80021750:	e1823003 	orr	r3, r2, r3
80021754:	e50b3010 	str	r3, [fp, #-16]
    v |= v >> 2;
80021758:	e51b3010 	ldr	r3, [fp, #-16]
8002175c:	e1a03123 	lsr	r3, r3, #2
80021760:	e51b2010 	ldr	r2, [fp, #-16]
80021764:	e1823003 	orr	r3, r2, r3
80021768:	e50b3010 	str	r3, [fp, #-16]
    v |= v >> 4;
8002176c:	e51b3010 	ldr	r3, [fp, #-16]
80021770:	e1a03223 	lsr	r3, r3, #4
80021774:	e51b2010 	ldr	r2, [fp, #-16]
80021778:	e1823003 	orr	r3, r2, r3
8002177c:	e50b3010 	str	r3, [fp, #-16]
    v |= v >> 8;
80021780:	e51b3010 	ldr	r3, [fp, #-16]
80021784:	e1a03423 	lsr	r3, r3, #8
80021788:	e51b2010 	ldr	r2, [fp, #-16]
8002178c:	e1823003 	orr	r3, r2, r3
80021790:	e50b3010 	str	r3, [fp, #-16]
    v |= v >> 16;
80021794:	e51b3010 	ldr	r3, [fp, #-16]
80021798:	e1a03823 	lsr	r3, r3, #16
8002179c:	e51b2010 	ldr	r2, [fp, #-16]
800217a0:	e1823003 	orr	r3, r2, r3
800217a4:	e50b3010 	str	r3, [fp, #-16]
    v++;
800217a8:	e51b3010 	ldr	r3, [fp, #-16]
800217ac:	e2833001 	add	r3, r3, #1
800217b0:	e50b3010 	str	r3, [fp, #-16]

    for (ord = 0; ord < 32; ord++) {
800217b4:	e3a03000 	mov	r3, #0
800217b8:	e50b3008 	str	r3, [fp, #-8]
800217bc:	ea00000a 	b	800217ec <get_order+0xc4>
        if (v & (1 << ord)) {
800217c0:	e51b3008 	ldr	r3, [fp, #-8]
800217c4:	e3a02001 	mov	r2, #1
800217c8:	e1a03312 	lsl	r3, r2, r3
800217cc:	e1a02003 	mov	r2, r3
800217d0:	e51b3010 	ldr	r3, [fp, #-16]
800217d4:	e0023003 	and	r3, r2, r3
800217d8:	e3530000 	cmp	r3, #0
800217dc:	1a000006 	bne	800217fc <get_order+0xd4>
    v |= v >> 4;
    v |= v >> 8;
    v |= v >> 16;
    v++;

    for (ord = 0; ord < 32; ord++) {
800217e0:	e51b3008 	ldr	r3, [fp, #-8]
800217e4:	e2833001 	add	r3, r3, #1
800217e8:	e50b3008 	str	r3, [fp, #-8]
800217ec:	e51b3008 	ldr	r3, [fp, #-8]
800217f0:	e353001f 	cmp	r3, #31
800217f4:	9afffff1 	bls	800217c0 <get_order+0x98>
800217f8:	ea000000 	b	80021800 <get_order+0xd8>
        if (v & (1 << ord)) {
            break;
800217fc:	e1a00000 	nop			; (mov r0, r0)
        }
    }
    
    if (ord < MIN_ORD) {
80021800:	e51b3008 	ldr	r3, [fp, #-8]
80021804:	e3530005 	cmp	r3, #5
80021808:	8a000002 	bhi	80021818 <get_order+0xf0>
        ord = MIN_ORD;
8002180c:	e3a03006 	mov	r3, #6
80021810:	e50b3008 	str	r3, [fp, #-8]
80021814:	ea000005 	b	80021830 <get_order+0x108>
    } else if (ord > MAX_ORD) {
80021818:	e51b3008 	ldr	r3, [fp, #-8]
8002181c:	e353000c 	cmp	r3, #12
80021820:	9a000002 	bls	80021830 <get_order+0x108>
        panic ("order too big!");
80021824:	e3090c98 	movw	r0, #40088	; 0x9c98
80021828:	e3480002 	movt	r0, #32770	; 0x8002
8002182c:	eb0000e2 	bl	80021bbc <panic>
    }
    
    return ord;
80021830:	e51b3008 	ldr	r3, [fp, #-8]

}
80021834:	e1a00003 	mov	r0, r3
80021838:	e24bd004 	sub	sp, fp, #4
8002183c:	e8bd8800 	pop	{fp, pc}

80021840 <printint>:
    struct spinlock lock;
    int locking;
} cons;

static void printint (int xx, int base, int sign)
{
80021840:	e92d4800 	push	{fp, lr}
80021844:	e28db004 	add	fp, sp, #4
80021848:	e24dd028 	sub	sp, sp, #40	; 0x28
8002184c:	e50b0020 	str	r0, [fp, #-32]	; 0xffffffe0
80021850:	e50b1024 	str	r1, [fp, #-36]	; 0xffffffdc
80021854:	e50b2028 	str	r2, [fp, #-40]	; 0xffffffd8
    static char digits[] = "0123456789abcdef";
    char buf[16];
    int i;
    uint x;

    if (sign && (sign = xx < 0)) {
80021858:	e51b3028 	ldr	r3, [fp, #-40]	; 0xffffffd8
8002185c:	e3530000 	cmp	r3, #0
80021860:	0a000009 	beq	8002188c <printint+0x4c>
80021864:	e51b3020 	ldr	r3, [fp, #-32]	; 0xffffffe0
80021868:	e1a03fa3 	lsr	r3, r3, #31
8002186c:	e50b3028 	str	r3, [fp, #-40]	; 0xffffffd8
80021870:	e51b3028 	ldr	r3, [fp, #-40]	; 0xffffffd8
80021874:	e3530000 	cmp	r3, #0
80021878:	0a000003 	beq	8002188c <printint+0x4c>
        x = -xx;
8002187c:	e51b3020 	ldr	r3, [fp, #-32]	; 0xffffffe0
80021880:	e2633000 	rsb	r3, r3, #0
80021884:	e50b300c 	str	r3, [fp, #-12]
80021888:	ea000001 	b	80021894 <printint+0x54>
    } else {
        x = xx;
8002188c:	e51b3020 	ldr	r3, [fp, #-32]	; 0xffffffe0
80021890:	e50b300c 	str	r3, [fp, #-12]
    }

    i = 0;
80021894:	e3a03000 	mov	r3, #0
80021898:	e50b3008 	str	r3, [fp, #-8]

    do {
        buf[i++] = digits[x % base];
8002189c:	e51b3024 	ldr	r3, [fp, #-36]	; 0xffffffdc
800218a0:	e51b200c 	ldr	r2, [fp, #-12]
800218a4:	e1a00002 	mov	r0, r2
800218a8:	e1a01003 	mov	r1, r3
800218ac:	eb002056 	bl	80029a0c <__aeabi_uidivmod>
800218b0:	e1a03001 	mov	r3, r1
800218b4:	e1a02003 	mov	r2, r3
800218b8:	e30b3000 	movw	r3, #45056	; 0xb000
800218bc:	e3483002 	movt	r3, #32770	; 0x8002
800218c0:	e7d32002 	ldrb	r2, [r3, r2]
800218c4:	e3e00017 	mvn	r0, #23
800218c8:	e51b3008 	ldr	r3, [fp, #-8]
800218cc:	e24bc004 	sub	ip, fp, #4
800218d0:	e08c1003 	add	r1, ip, r3
800218d4:	e1a03000 	mov	r3, r0
800218d8:	e0813003 	add	r3, r1, r3
800218dc:	e5c32000 	strb	r2, [r3]
800218e0:	e51b3008 	ldr	r3, [fp, #-8]
800218e4:	e2833001 	add	r3, r3, #1
800218e8:	e50b3008 	str	r3, [fp, #-8]
    } while ((x /= base) != 0);
800218ec:	e51b3024 	ldr	r3, [fp, #-36]	; 0xffffffdc
800218f0:	e51b000c 	ldr	r0, [fp, #-12]
800218f4:	e1a01003 	mov	r1, r3
800218f8:	eb002006 	bl	80029918 <__aeabi_uidiv>
800218fc:	e1a03000 	mov	r3, r0
80021900:	e50b300c 	str	r3, [fp, #-12]
80021904:	e51b300c 	ldr	r3, [fp, #-12]
80021908:	e3530000 	cmp	r3, #0
8002190c:	1affffe2 	bne	8002189c <printint+0x5c>

    if (sign) {
80021910:	e51b3028 	ldr	r3, [fp, #-40]	; 0xffffffd8
80021914:	e3530000 	cmp	r3, #0
80021918:	0a000014 	beq	80021970 <printint+0x130>
        buf[i++] = '-';
8002191c:	e3e01017 	mvn	r1, #23
80021920:	e51b3008 	ldr	r3, [fp, #-8]
80021924:	e24b0004 	sub	r0, fp, #4
80021928:	e0802003 	add	r2, r0, r3
8002192c:	e1a03001 	mov	r3, r1
80021930:	e0823003 	add	r3, r2, r3
80021934:	e3a0202d 	mov	r2, #45	; 0x2d
80021938:	e5c32000 	strb	r2, [r3]
8002193c:	e51b3008 	ldr	r3, [fp, #-8]
80021940:	e2833001 	add	r3, r3, #1
80021944:	e50b3008 	str	r3, [fp, #-8]
    }

    while (--i >= 0) {
80021948:	ea000008 	b	80021970 <printint+0x130>
        consputc(buf[i]);
8002194c:	e3e01017 	mvn	r1, #23
80021950:	e51b3008 	ldr	r3, [fp, #-8]
80021954:	e24bc004 	sub	ip, fp, #4
80021958:	e08c2003 	add	r2, ip, r3
8002195c:	e1a03001 	mov	r3, r1
80021960:	e0823003 	add	r3, r2, r3
80021964:	e5d33000 	ldrb	r3, [r3]
80021968:	e1a00003 	mov	r0, r3
8002196c:	eb0000aa 	bl	80021c1c <consputc>

    if (sign) {
        buf[i++] = '-';
    }

    while (--i >= 0) {
80021970:	e51b3008 	ldr	r3, [fp, #-8]
80021974:	e2433001 	sub	r3, r3, #1
80021978:	e50b3008 	str	r3, [fp, #-8]
8002197c:	e51b3008 	ldr	r3, [fp, #-8]
80021980:	e3530000 	cmp	r3, #0
80021984:	aafffff0 	bge	8002194c <printint+0x10c>
        consputc(buf[i]);
    }
}
80021988:	e24bd004 	sub	sp, fp, #4
8002198c:	e8bd8800 	pop	{fp, pc}

80021990 <cprintf>:
//PAGEBREAK: 50

// Print to the console. only understands %d, %x, %p, %s.
void cprintf (char *fmt, ...)
{
80021990:	e92d000f 	push	{r0, r1, r2, r3}
80021994:	e92d4800 	push	{fp, lr}
80021998:	e28db004 	add	fp, sp, #4
8002199c:	e24dd018 	sub	sp, sp, #24
    int i, c, locking;
    uint *argp;
    char *s;

    locking = cons.locking;
800219a0:	e30c387c 	movw	r3, #51324	; 0xc87c
800219a4:	e348300a 	movt	r3, #32778	; 0x800a
800219a8:	e5933034 	ldr	r3, [r3, #52]	; 0x34
800219ac:	e50b3014 	str	r3, [fp, #-20]	; 0xffffffec

    if (locking) {
800219b0:	e51b3014 	ldr	r3, [fp, #-20]	; 0xffffffec
800219b4:	e3530000 	cmp	r3, #0
800219b8:	0a000002 	beq	800219c8 <cprintf+0x38>
        acquire(&cons.lock);
800219bc:	e30c087c 	movw	r0, #51324	; 0xc87c
800219c0:	e348000a 	movt	r0, #32778	; 0x800a
800219c4:	eb0011b0 	bl	8002608c <acquire>
    }

    if (fmt == 0) {
800219c8:	e59b3004 	ldr	r3, [fp, #4]
800219cc:	e3530000 	cmp	r3, #0
800219d0:	1a000002 	bne	800219e0 <cprintf+0x50>
        panic("null fmt");
800219d4:	e3090ca8 	movw	r0, #40104	; 0x9ca8
800219d8:	e3480002 	movt	r0, #32770	; 0x8002
800219dc:	eb000076 	bl	80021bbc <panic>
    }

    argp = (uint*) (void*) (&fmt + 1);
800219e0:	e28b3008 	add	r3, fp, #8
800219e4:	e50b300c 	str	r3, [fp, #-12]

    for (i = 0; (c = fmt[i] & 0xff) != 0; i++) {
800219e8:	e3a03000 	mov	r3, #0
800219ec:	e50b3008 	str	r3, [fp, #-8]
800219f0:	ea00005d 	b	80021b6c <cprintf+0x1dc>
        if (c != '%') {
800219f4:	e51b3018 	ldr	r3, [fp, #-24]	; 0xffffffe8
800219f8:	e3530025 	cmp	r3, #37	; 0x25
800219fc:	0a000002 	beq	80021a0c <cprintf+0x7c>
            consputc(c);
80021a00:	e51b0018 	ldr	r0, [fp, #-24]	; 0xffffffe8
80021a04:	eb000084 	bl	80021c1c <consputc>
            continue;
80021a08:	ea000054 	b	80021b60 <cprintf+0x1d0>
        }

        c = fmt[++i] & 0xff;
80021a0c:	e59b2004 	ldr	r2, [fp, #4]
80021a10:	e51b3008 	ldr	r3, [fp, #-8]
80021a14:	e2833001 	add	r3, r3, #1
80021a18:	e50b3008 	str	r3, [fp, #-8]
80021a1c:	e51b3008 	ldr	r3, [fp, #-8]
80021a20:	e0823003 	add	r3, r2, r3
80021a24:	e5d33000 	ldrb	r3, [r3]
80021a28:	e50b3018 	str	r3, [fp, #-24]	; 0xffffffe8

        if (c == 0) {
80021a2c:	e51b3018 	ldr	r3, [fp, #-24]	; 0xffffffe8
80021a30:	e3530000 	cmp	r3, #0
80021a34:	0a000055 	beq	80021b90 <cprintf+0x200>
            break;
        }

        switch (c) {
80021a38:	e51b3018 	ldr	r3, [fp, #-24]	; 0xffffffe8
80021a3c:	e3530070 	cmp	r3, #112	; 0x70
80021a40:	0a000015 	beq	80021a9c <cprintf+0x10c>
80021a44:	e3530070 	cmp	r3, #112	; 0x70
80021a48:	ca000004 	bgt	80021a60 <cprintf+0xd0>
80021a4c:	e3530025 	cmp	r3, #37	; 0x25
80021a50:	0a00003a 	beq	80021b40 <cprintf+0x1b0>
80021a54:	e3530064 	cmp	r3, #100	; 0x64
80021a58:	0a000005 	beq	80021a74 <cprintf+0xe4>
80021a5c:	ea00003a 	b	80021b4c <cprintf+0x1bc>
80021a60:	e3530073 	cmp	r3, #115	; 0x73
80021a64:	0a000016 	beq	80021ac4 <cprintf+0x134>
80021a68:	e3530078 	cmp	r3, #120	; 0x78
80021a6c:	0a00000a 	beq	80021a9c <cprintf+0x10c>
80021a70:	ea000035 	b	80021b4c <cprintf+0x1bc>
        case 'd':
            printint(*argp++, 10, 1);
80021a74:	e51b300c 	ldr	r3, [fp, #-12]
80021a78:	e5933000 	ldr	r3, [r3]
80021a7c:	e51b200c 	ldr	r2, [fp, #-12]
80021a80:	e2822004 	add	r2, r2, #4
80021a84:	e50b200c 	str	r2, [fp, #-12]
80021a88:	e1a00003 	mov	r0, r3
80021a8c:	e3a0100a 	mov	r1, #10
80021a90:	e3a02001 	mov	r2, #1
80021a94:	ebffff69 	bl	80021840 <printint>
            break;
80021a98:	ea000030 	b	80021b60 <cprintf+0x1d0>

        case 'x':
        case 'p':
            printint(*argp++, 16, 0);
80021a9c:	e51b300c 	ldr	r3, [fp, #-12]
80021aa0:	e5933000 	ldr	r3, [r3]
80021aa4:	e51b200c 	ldr	r2, [fp, #-12]
80021aa8:	e2822004 	add	r2, r2, #4
80021aac:	e50b200c 	str	r2, [fp, #-12]
80021ab0:	e1a00003 	mov	r0, r3
80021ab4:	e3a01010 	mov	r1, #16
80021ab8:	e3a02000 	mov	r2, #0
80021abc:	ebffff5f 	bl	80021840 <printint>
            break;
80021ac0:	ea000026 	b	80021b60 <cprintf+0x1d0>

        case 's':
            if ((s = (char*) *argp++) == 0) {
80021ac4:	e51b300c 	ldr	r3, [fp, #-12]
80021ac8:	e5933000 	ldr	r3, [r3]
80021acc:	e50b3010 	str	r3, [fp, #-16]
80021ad0:	e51b3010 	ldr	r3, [fp, #-16]
80021ad4:	e3530000 	cmp	r3, #0
80021ad8:	13a03000 	movne	r3, #0
80021adc:	03a03001 	moveq	r3, #1
80021ae0:	e6ef3073 	uxtb	r3, r3
80021ae4:	e51b200c 	ldr	r2, [fp, #-12]
80021ae8:	e2822004 	add	r2, r2, #4
80021aec:	e50b200c 	str	r2, [fp, #-12]
80021af0:	e3530000 	cmp	r3, #0
80021af4:	0a00000b 	beq	80021b28 <cprintf+0x198>
                s = "(null)";
80021af8:	e3093cb4 	movw	r3, #40116	; 0x9cb4
80021afc:	e3483002 	movt	r3, #32770	; 0x8002
80021b00:	e50b3010 	str	r3, [fp, #-16]
            }

            for (; *s; s++) {
80021b04:	ea000007 	b	80021b28 <cprintf+0x198>
                consputc(*s);
80021b08:	e51b3010 	ldr	r3, [fp, #-16]
80021b0c:	e5d33000 	ldrb	r3, [r3]
80021b10:	e1a00003 	mov	r0, r3
80021b14:	eb000040 	bl	80021c1c <consputc>
        case 's':
            if ((s = (char*) *argp++) == 0) {
                s = "(null)";
            }

            for (; *s; s++) {
80021b18:	e51b3010 	ldr	r3, [fp, #-16]
80021b1c:	e2833001 	add	r3, r3, #1
80021b20:	e50b3010 	str	r3, [fp, #-16]
80021b24:	ea000000 	b	80021b2c <cprintf+0x19c>
80021b28:	e1a00000 	nop			; (mov r0, r0)
80021b2c:	e51b3010 	ldr	r3, [fp, #-16]
80021b30:	e5d33000 	ldrb	r3, [r3]
80021b34:	e3530000 	cmp	r3, #0
80021b38:	1afffff2 	bne	80021b08 <cprintf+0x178>
                consputc(*s);
            }
            break;
80021b3c:	ea000007 	b	80021b60 <cprintf+0x1d0>

        case '%':
            consputc('%');
80021b40:	e3a00025 	mov	r0, #37	; 0x25
80021b44:	eb000034 	bl	80021c1c <consputc>
            break;
80021b48:	ea000004 	b	80021b60 <cprintf+0x1d0>

        default:
            // Print unknown % sequence to draw attention.
            consputc('%');
80021b4c:	e3a00025 	mov	r0, #37	; 0x25
80021b50:	eb000031 	bl	80021c1c <consputc>
            consputc(c);
80021b54:	e51b0018 	ldr	r0, [fp, #-24]	; 0xffffffe8
80021b58:	eb00002f 	bl	80021c1c <consputc>
            break;
80021b5c:	e1a00000 	nop			; (mov r0, r0)
        panic("null fmt");
    }

    argp = (uint*) (void*) (&fmt + 1);

    for (i = 0; (c = fmt[i] & 0xff) != 0; i++) {
80021b60:	e51b3008 	ldr	r3, [fp, #-8]
80021b64:	e2833001 	add	r3, r3, #1
80021b68:	e50b3008 	str	r3, [fp, #-8]
80021b6c:	e59b2004 	ldr	r2, [fp, #4]
80021b70:	e51b3008 	ldr	r3, [fp, #-8]
80021b74:	e0823003 	add	r3, r2, r3
80021b78:	e5d33000 	ldrb	r3, [r3]
80021b7c:	e50b3018 	str	r3, [fp, #-24]	; 0xffffffe8
80021b80:	e51b3018 	ldr	r3, [fp, #-24]	; 0xffffffe8
80021b84:	e3530000 	cmp	r3, #0
80021b88:	1affff99 	bne	800219f4 <cprintf+0x64>
80021b8c:	ea000000 	b	80021b94 <cprintf+0x204>
        }

        c = fmt[++i] & 0xff;

        if (c == 0) {
            break;
80021b90:	e1a00000 	nop			; (mov r0, r0)
            consputc(c);
            break;
        }
    }

    if (locking) {
80021b94:	e51b3014 	ldr	r3, [fp, #-20]	; 0xffffffec
80021b98:	e3530000 	cmp	r3, #0
80021b9c:	0a000002 	beq	80021bac <cprintf+0x21c>
        release(&cons.lock);
80021ba0:	e30c087c 	movw	r0, #51324	; 0xc87c
80021ba4:	e348000a 	movt	r0, #32778	; 0x800a
80021ba8:	eb001141 	bl	800260b4 <release>
    }
}
80021bac:	e24bd004 	sub	sp, fp, #4
80021bb0:	e8bd4800 	pop	{fp, lr}
80021bb4:	e28dd010 	add	sp, sp, #16
80021bb8:	e12fff1e 	bx	lr

80021bbc <panic>:

void panic (char *s)
{
80021bbc:	e92d4800 	push	{fp, lr}
80021bc0:	e28db004 	add	fp, sp, #4
80021bc4:	e24dd008 	sub	sp, sp, #8
80021bc8:	e50b0008 	str	r0, [fp, #-8]
    cli();
80021bcc:	ebfffa87 	bl	800205f0 <cli>

    cons.locking = 0;
80021bd0:	e30c387c 	movw	r3, #51324	; 0xc87c
80021bd4:	e348300a 	movt	r3, #32778	; 0x800a
80021bd8:	e3a02000 	mov	r2, #0
80021bdc:	e5832034 	str	r2, [r3, #52]	; 0x34

    cprintf("cpu%d: panic: ", cpu->id);
80021be0:	e30e351c 	movw	r3, #58652	; 0xe51c
80021be4:	e348300a 	movt	r3, #32778	; 0x800a
80021be8:	e5933000 	ldr	r3, [r3]
80021bec:	e5d33000 	ldrb	r3, [r3]
80021bf0:	e3090cbc 	movw	r0, #40124	; 0x9cbc
80021bf4:	e3480002 	movt	r0, #32770	; 0x8002
80021bf8:	e1a01003 	mov	r1, r3
80021bfc:	ebffff63 	bl	80021990 <cprintf>

    show_callstk(s);
80021c00:	e51b0008 	ldr	r0, [fp, #-8]
80021c04:	ebfffb2f 	bl	800208c8 <show_callstk>
    panicked = 1; // freeze other CPU
80021c08:	e30c3878 	movw	r3, #51320	; 0xc878
80021c0c:	e348300a 	movt	r3, #32778	; 0x800a
80021c10:	e3a02001 	mov	r2, #1
80021c14:	e5832000 	str	r2, [r3]

    while (1)
        ;
80021c18:	eafffffe 	b	80021c18 <panic+0x5c>

80021c1c <consputc>:
//PAGEBREAK: 50
#define BACKSPACE 0x100
#define CRTPORT 0x3d4

void consputc (int c)
{
80021c1c:	e92d4800 	push	{fp, lr}
80021c20:	e28db004 	add	fp, sp, #4
80021c24:	e24dd008 	sub	sp, sp, #8
80021c28:	e50b0008 	str	r0, [fp, #-8]
    if (panicked) {
80021c2c:	e30c3878 	movw	r3, #51320	; 0xc878
80021c30:	e348300a 	movt	r3, #32778	; 0x800a
80021c34:	e5933000 	ldr	r3, [r3]
80021c38:	e3530000 	cmp	r3, #0
80021c3c:	0a000001 	beq	80021c48 <consputc+0x2c>
        cli();
80021c40:	ebfffa6a 	bl	800205f0 <cli>
        while (1)
            ;
80021c44:	eafffffe 	b	80021c44 <consputc+0x28>
    }

    if (c == BACKSPACE) {
80021c48:	e51b3008 	ldr	r3, [fp, #-8]
80021c4c:	e3530c01 	cmp	r3, #256	; 0x100
80021c50:	1a000006 	bne	80021c70 <consputc+0x54>
        uartputc('\b');
80021c54:	e3a00008 	mov	r0, #8
80021c58:	eb001eec 	bl	80029810 <uartputc>
        uartputc(' ');
80021c5c:	e3a00020 	mov	r0, #32
80021c60:	eb001eea 	bl	80029810 <uartputc>
        uartputc('\b');
80021c64:	e3a00008 	mov	r0, #8
80021c68:	eb001ee8 	bl	80029810 <uartputc>
80021c6c:	ea000001 	b	80021c78 <consputc+0x5c>
    } else {
        uartputc(c);
80021c70:	e51b0008 	ldr	r0, [fp, #-8]
80021c74:	eb001ee5 	bl	80029810 <uartputc>
    }

    // cgaputc(c);
}
80021c78:	e24bd004 	sub	sp, fp, #4
80021c7c:	e8bd8800 	pop	{fp, pc}

80021c80 <consoleintr>:
    uint e;  // Edit index
} input;

#define C(x)  ((x)-'@')  // Control-x
void consoleintr (int (*getc) (void))
{
80021c80:	e92d4800 	push	{fp, lr}
80021c84:	e28db004 	add	fp, sp, #4
80021c88:	e24dd010 	sub	sp, sp, #16
80021c8c:	e50b0010 	str	r0, [fp, #-16]
    int c;

    acquire(&input.lock);
80021c90:	e30c08b4 	movw	r0, #51380	; 0xc8b4
80021c94:	e348000a 	movt	r0, #32778	; 0x800a
80021c98:	eb0010fb 	bl	8002608c <acquire>

    while ((c = getc()) >= 0) {
80021c9c:	ea000089 	b	80021ec8 <consoleintr+0x248>
        switch (c) {
80021ca0:	e51b3008 	ldr	r3, [fp, #-8]
80021ca4:	e3530010 	cmp	r3, #16
80021ca8:	0a000009 	beq	80021cd4 <consoleintr+0x54>
80021cac:	e3530010 	cmp	r3, #16
80021cb0:	ca000002 	bgt	80021cc0 <consoleintr+0x40>
80021cb4:	e3530008 	cmp	r3, #8
80021cb8:	0a00002a 	beq	80021d68 <consoleintr+0xe8>
80021cbc:	ea00003b 	b	80021db0 <consoleintr+0x130>
80021cc0:	e3530015 	cmp	r3, #21
80021cc4:	0a00000e 	beq	80021d04 <consoleintr+0x84>
80021cc8:	e353007f 	cmp	r3, #127	; 0x7f
80021ccc:	0a000025 	beq	80021d68 <consoleintr+0xe8>
80021cd0:	ea000036 	b	80021db0 <consoleintr+0x130>
        case C('P'):  // Process listing.
            procdump();
80021cd4:	eb001099 	bl	80025f40 <procdump>
            break;
80021cd8:	ea00007a 	b	80021ec8 <consoleintr+0x248>

        case C('U'):  // Kill line.
            while ((input.e != input.w) && (input.buf[(input.e - 1) % INPUT_BUF] != '\n')) {
                input.e--;
80021cdc:	e30c38b4 	movw	r3, #51380	; 0xc8b4
80021ce0:	e348300a 	movt	r3, #32778	; 0x800a
80021ce4:	e593323c 	ldr	r3, [r3, #572]	; 0x23c
80021ce8:	e2432001 	sub	r2, r3, #1
80021cec:	e30c38b4 	movw	r3, #51380	; 0xc8b4
80021cf0:	e348300a 	movt	r3, #32778	; 0x800a
80021cf4:	e583223c 	str	r2, [r3, #572]	; 0x23c
                consputc(BACKSPACE);
80021cf8:	e3a00c01 	mov	r0, #256	; 0x100
80021cfc:	ebffffc6 	bl	80021c1c <consputc>
80021d00:	ea000000 	b	80021d08 <consoleintr+0x88>
        case C('P'):  // Process listing.
            procdump();
            break;

        case C('U'):  // Kill line.
            while ((input.e != input.w) && (input.buf[(input.e - 1) % INPUT_BUF] != '\n')) {
80021d04:	e1a00000 	nop			; (mov r0, r0)
80021d08:	e30c38b4 	movw	r3, #51380	; 0xc8b4
80021d0c:	e348300a 	movt	r3, #32778	; 0x800a
80021d10:	e593223c 	ldr	r2, [r3, #572]	; 0x23c
80021d14:	e30c38b4 	movw	r3, #51380	; 0xc8b4
80021d18:	e348300a 	movt	r3, #32778	; 0x800a
80021d1c:	e5933238 	ldr	r3, [r3, #568]	; 0x238
80021d20:	e1520003 	cmp	r2, r3
80021d24:	0a000062 	beq	80021eb4 <consoleintr+0x234>
80021d28:	e30c38b4 	movw	r3, #51380	; 0xc8b4
80021d2c:	e348300a 	movt	r3, #32778	; 0x800a
80021d30:	e593323c 	ldr	r3, [r3, #572]	; 0x23c
80021d34:	e2433001 	sub	r3, r3, #1
80021d38:	e1a03b83 	lsl	r3, r3, #23
80021d3c:	e1a03ba3 	lsr	r3, r3, #23
80021d40:	e30c28b4 	movw	r2, #51380	; 0xc8b4
80021d44:	e348200a 	movt	r2, #32778	; 0x800a
80021d48:	e3a01030 	mov	r1, #48	; 0x30
80021d4c:	e0822003 	add	r2, r2, r3
80021d50:	e1a03001 	mov	r3, r1
80021d54:	e0823003 	add	r3, r2, r3
80021d58:	e5d33004 	ldrb	r3, [r3, #4]
80021d5c:	e353000a 	cmp	r3, #10
80021d60:	1affffdd 	bne	80021cdc <consoleintr+0x5c>
                input.e--;
                consputc(BACKSPACE);
            }

            break;
80021d64:	ea000052 	b	80021eb4 <consoleintr+0x234>

        case C('H'):
        case '\x7f':  // Backspace
            if (input.e != input.w) {
80021d68:	e30c38b4 	movw	r3, #51380	; 0xc8b4
80021d6c:	e348300a 	movt	r3, #32778	; 0x800a
80021d70:	e593223c 	ldr	r2, [r3, #572]	; 0x23c
80021d74:	e30c38b4 	movw	r3, #51380	; 0xc8b4
80021d78:	e348300a 	movt	r3, #32778	; 0x800a
80021d7c:	e5933238 	ldr	r3, [r3, #568]	; 0x238
80021d80:	e1520003 	cmp	r2, r3
80021d84:	0a00004c 	beq	80021ebc <consoleintr+0x23c>
                input.e--;
80021d88:	e30c38b4 	movw	r3, #51380	; 0xc8b4
80021d8c:	e348300a 	movt	r3, #32778	; 0x800a
80021d90:	e593323c 	ldr	r3, [r3, #572]	; 0x23c
80021d94:	e2432001 	sub	r2, r3, #1
80021d98:	e30c38b4 	movw	r3, #51380	; 0xc8b4
80021d9c:	e348300a 	movt	r3, #32778	; 0x800a
80021da0:	e583223c 	str	r2, [r3, #572]	; 0x23c
                consputc(BACKSPACE);
80021da4:	e3a00c01 	mov	r0, #256	; 0x100
80021da8:	ebffff9b 	bl	80021c1c <consputc>
            }

            break;
80021dac:	ea000042 	b	80021ebc <consoleintr+0x23c>

        default:
            if ((c != 0) && (input.e - input.r < INPUT_BUF)) {
80021db0:	e51b3008 	ldr	r3, [fp, #-8]
80021db4:	e3530000 	cmp	r3, #0
80021db8:	0a000041 	beq	80021ec4 <consoleintr+0x244>
80021dbc:	e30c38b4 	movw	r3, #51380	; 0xc8b4
80021dc0:	e348300a 	movt	r3, #32778	; 0x800a
80021dc4:	e593223c 	ldr	r2, [r3, #572]	; 0x23c
80021dc8:	e30c38b4 	movw	r3, #51380	; 0xc8b4
80021dcc:	e348300a 	movt	r3, #32778	; 0x800a
80021dd0:	e5933234 	ldr	r3, [r3, #564]	; 0x234
80021dd4:	e0632002 	rsb	r2, r3, r2
80021dd8:	e30031ff 	movw	r3, #511	; 0x1ff
80021ddc:	e1520003 	cmp	r2, r3
80021de0:	8a000037 	bhi	80021ec4 <consoleintr+0x244>
                c = (c == '\r') ? '\n' : c;
80021de4:	e51b3008 	ldr	r3, [fp, #-8]
80021de8:	e353000d 	cmp	r3, #13
80021dec:	0a000001 	beq	80021df8 <consoleintr+0x178>
80021df0:	e51b3008 	ldr	r3, [fp, #-8]
80021df4:	ea000000 	b	80021dfc <consoleintr+0x17c>
80021df8:	e3a0300a 	mov	r3, #10
80021dfc:	e50b3008 	str	r3, [fp, #-8]

                input.buf[input.e++ % INPUT_BUF] = c;
80021e00:	e30c38b4 	movw	r3, #51380	; 0xc8b4
80021e04:	e348300a 	movt	r3, #32778	; 0x800a
80021e08:	e593123c 	ldr	r1, [r3, #572]	; 0x23c
80021e0c:	e1a03b81 	lsl	r3, r1, #23
80021e10:	e1a03ba3 	lsr	r3, r3, #23
80021e14:	e51b2008 	ldr	r2, [fp, #-8]
80021e18:	e6ef0072 	uxtb	r0, r2
80021e1c:	e30c28b4 	movw	r2, #51380	; 0xc8b4
80021e20:	e348200a 	movt	r2, #32778	; 0x800a
80021e24:	e3a0c030 	mov	ip, #48	; 0x30
80021e28:	e0822003 	add	r2, r2, r3
80021e2c:	e1a0300c 	mov	r3, ip
80021e30:	e0823003 	add	r3, r2, r3
80021e34:	e1a02000 	mov	r2, r0
80021e38:	e5c32004 	strb	r2, [r3, #4]
80021e3c:	e2812001 	add	r2, r1, #1
80021e40:	e30c38b4 	movw	r3, #51380	; 0xc8b4
80021e44:	e348300a 	movt	r3, #32778	; 0x800a
80021e48:	e583223c 	str	r2, [r3, #572]	; 0x23c
                consputc(c);
80021e4c:	e51b0008 	ldr	r0, [fp, #-8]
80021e50:	ebffff71 	bl	80021c1c <consputc>

                if (c == '\n' || c == C('D') || input.e == input.r + INPUT_BUF) {
80021e54:	e51b3008 	ldr	r3, [fp, #-8]
80021e58:	e353000a 	cmp	r3, #10
80021e5c:	0a00000b 	beq	80021e90 <consoleintr+0x210>
80021e60:	e51b3008 	ldr	r3, [fp, #-8]
80021e64:	e3530004 	cmp	r3, #4
80021e68:	0a000008 	beq	80021e90 <consoleintr+0x210>
80021e6c:	e30c38b4 	movw	r3, #51380	; 0xc8b4
80021e70:	e348300a 	movt	r3, #32778	; 0x800a
80021e74:	e593223c 	ldr	r2, [r3, #572]	; 0x23c
80021e78:	e30c38b4 	movw	r3, #51380	; 0xc8b4
80021e7c:	e348300a 	movt	r3, #32778	; 0x800a
80021e80:	e5933234 	ldr	r3, [r3, #564]	; 0x234
80021e84:	e2833c02 	add	r3, r3, #512	; 0x200
80021e88:	e1520003 	cmp	r2, r3
80021e8c:	1a00000c 	bne	80021ec4 <consoleintr+0x244>
                    input.w = input.e;
80021e90:	e30c38b4 	movw	r3, #51380	; 0xc8b4
80021e94:	e348300a 	movt	r3, #32778	; 0x800a
80021e98:	e593223c 	ldr	r2, [r3, #572]	; 0x23c
80021e9c:	e30c38b4 	movw	r3, #51380	; 0xc8b4
80021ea0:	e348300a 	movt	r3, #32778	; 0x800a
80021ea4:	e5832238 	str	r2, [r3, #568]	; 0x238
                    wakeup(&input.r);
80021ea8:	e59f0044 	ldr	r0, [pc, #68]	; 80021ef4 <consoleintr+0x274>
80021eac:	eb000fe7 	bl	80025e50 <wakeup>
                }
            }

            break;
80021eb0:	ea000003 	b	80021ec4 <consoleintr+0x244>
            while ((input.e != input.w) && (input.buf[(input.e - 1) % INPUT_BUF] != '\n')) {
                input.e--;
                consputc(BACKSPACE);
            }

            break;
80021eb4:	e1a00000 	nop			; (mov r0, r0)
80021eb8:	ea000002 	b	80021ec8 <consoleintr+0x248>
            if (input.e != input.w) {
                input.e--;
                consputc(BACKSPACE);
            }

            break;
80021ebc:	e1a00000 	nop			; (mov r0, r0)
80021ec0:	ea000000 	b	80021ec8 <consoleintr+0x248>
                    input.w = input.e;
                    wakeup(&input.r);
                }
            }

            break;
80021ec4:	e1a00000 	nop			; (mov r0, r0)
{
    int c;

    acquire(&input.lock);

    while ((c = getc()) >= 0) {
80021ec8:	e51b3010 	ldr	r3, [fp, #-16]
80021ecc:	e12fff33 	blx	r3
80021ed0:	e50b0008 	str	r0, [fp, #-8]
80021ed4:	e51b3008 	ldr	r3, [fp, #-8]
80021ed8:	e3530000 	cmp	r3, #0
80021edc:	aaffff6f 	bge	80021ca0 <consoleintr+0x20>

            break;
        }
    }

    release(&input.lock);
80021ee0:	e30c08b4 	movw	r0, #51380	; 0xc8b4
80021ee4:	e348000a 	movt	r0, #32778	; 0x800a
80021ee8:	eb001071 	bl	800260b4 <release>
}
80021eec:	e24bd004 	sub	sp, fp, #4
80021ef0:	e8bd8800 	pop	{fp, pc}
80021ef4:	800acae8 	.word	0x800acae8

80021ef8 <consoleread>:

int consoleread (struct inode *ip, char *dst, int n)
{
80021ef8:	e92d4800 	push	{fp, lr}
80021efc:	e28db004 	add	fp, sp, #4
80021f00:	e24dd018 	sub	sp, sp, #24
80021f04:	e50b0010 	str	r0, [fp, #-16]
80021f08:	e50b1014 	str	r1, [fp, #-20]	; 0xffffffec
80021f0c:	e50b2018 	str	r2, [fp, #-24]	; 0xffffffe8
    uint target;
    int c;

    iunlock(ip);
80021f10:	e51b0010 	ldr	r0, [fp, #-16]
80021f14:	eb000570 	bl	800234dc <iunlock>

    target = n;
80021f18:	e51b3018 	ldr	r3, [fp, #-24]	; 0xffffffe8
80021f1c:	e50b3008 	str	r3, [fp, #-8]
    acquire(&input.lock);
80021f20:	e30c08b4 	movw	r0, #51380	; 0xc8b4
80021f24:	e348000a 	movt	r0, #32778	; 0x800a
80021f28:	eb001057 	bl	8002608c <acquire>

    while (n > 0) {
80021f2c:	ea000047 	b	80022050 <consoleread+0x158>
        while (input.r == input.w) {
            if (proc->killed) {
80021f30:	e30e360c 	movw	r3, #58892	; 0xe60c
80021f34:	e348300a 	movt	r3, #32778	; 0x800a
80021f38:	e5933000 	ldr	r3, [r3]
80021f3c:	e5933028 	ldr	r3, [r3, #40]	; 0x28
80021f40:	e3530000 	cmp	r3, #0
80021f44:	0a000006 	beq	80021f64 <consoleread+0x6c>
                release(&input.lock);
80021f48:	e30c08b4 	movw	r0, #51380	; 0xc8b4
80021f4c:	e348000a 	movt	r0, #32778	; 0x800a
80021f50:	eb001057 	bl	800260b4 <release>
                ilock(ip);
80021f54:	e51b0010 	ldr	r0, [fp, #-16]
80021f58:	eb0004f8 	bl	80023340 <ilock>
                return -1;
80021f5c:	e3e03000 	mvn	r3, #0
80021f60:	ea000049 	b	8002208c <consoleread+0x194>
            }

            sleep(&input.r, &input.lock);
80021f64:	e59f012c 	ldr	r0, [pc, #300]	; 80022098 <consoleread+0x1a0>
80021f68:	e30c18b4 	movw	r1, #51380	; 0xc8b4
80021f6c:	e348100a 	movt	r1, #32778	; 0x800a
80021f70:	eb000f5e 	bl	80025cf0 <sleep>
80021f74:	ea000000 	b	80021f7c <consoleread+0x84>

    target = n;
    acquire(&input.lock);

    while (n > 0) {
        while (input.r == input.w) {
80021f78:	e1a00000 	nop			; (mov r0, r0)
80021f7c:	e30c38b4 	movw	r3, #51380	; 0xc8b4
80021f80:	e348300a 	movt	r3, #32778	; 0x800a
80021f84:	e5932234 	ldr	r2, [r3, #564]	; 0x234
80021f88:	e30c38b4 	movw	r3, #51380	; 0xc8b4
80021f8c:	e348300a 	movt	r3, #32778	; 0x800a
80021f90:	e5933238 	ldr	r3, [r3, #568]	; 0x238
80021f94:	e1520003 	cmp	r2, r3
80021f98:	0affffe4 	beq	80021f30 <consoleread+0x38>
            }

            sleep(&input.r, &input.lock);
        }

        c = input.buf[input.r++ % INPUT_BUF];
80021f9c:	e30c38b4 	movw	r3, #51380	; 0xc8b4
80021fa0:	e348300a 	movt	r3, #32778	; 0x800a
80021fa4:	e5931234 	ldr	r1, [r3, #564]	; 0x234
80021fa8:	e1a03b81 	lsl	r3, r1, #23
80021fac:	e1a03ba3 	lsr	r3, r3, #23
80021fb0:	e30c28b4 	movw	r2, #51380	; 0xc8b4
80021fb4:	e348200a 	movt	r2, #32778	; 0x800a
80021fb8:	e3a00030 	mov	r0, #48	; 0x30
80021fbc:	e0822003 	add	r2, r2, r3
80021fc0:	e1a03000 	mov	r3, r0
80021fc4:	e0823003 	add	r3, r2, r3
80021fc8:	e5d33004 	ldrb	r3, [r3, #4]
80021fcc:	e50b300c 	str	r3, [fp, #-12]
80021fd0:	e2812001 	add	r2, r1, #1
80021fd4:	e30c38b4 	movw	r3, #51380	; 0xc8b4
80021fd8:	e348300a 	movt	r3, #32778	; 0x800a
80021fdc:	e5832234 	str	r2, [r3, #564]	; 0x234

        if (c == C('D')) {  // EOF
80021fe0:	e51b300c 	ldr	r3, [fp, #-12]
80021fe4:	e3530004 	cmp	r3, #4
80021fe8:	1a00000b 	bne	8002201c <consoleread+0x124>
            if (n < target) {
80021fec:	e51b2018 	ldr	r2, [fp, #-24]	; 0xffffffe8
80021ff0:	e51b3008 	ldr	r3, [fp, #-8]
80021ff4:	e1520003 	cmp	r2, r3
80021ff8:	2a000018 	bcs	80022060 <consoleread+0x168>
                // Save ^D for next time, to make sure
                // caller gets a 0-byte result.
                input.r--;
80021ffc:	e30c38b4 	movw	r3, #51380	; 0xc8b4
80022000:	e348300a 	movt	r3, #32778	; 0x800a
80022004:	e5933234 	ldr	r3, [r3, #564]	; 0x234
80022008:	e2432001 	sub	r2, r3, #1
8002200c:	e30c38b4 	movw	r3, #51380	; 0xc8b4
80022010:	e348300a 	movt	r3, #32778	; 0x800a
80022014:	e5832234 	str	r2, [r3, #564]	; 0x234
            }

            break;
80022018:	ea000010 	b	80022060 <consoleread+0x168>
        }

        *dst++ = c;
8002201c:	e51b300c 	ldr	r3, [fp, #-12]
80022020:	e6ef2073 	uxtb	r2, r3
80022024:	e51b3014 	ldr	r3, [fp, #-20]	; 0xffffffec
80022028:	e5c32000 	strb	r2, [r3]
8002202c:	e51b3014 	ldr	r3, [fp, #-20]	; 0xffffffec
80022030:	e2833001 	add	r3, r3, #1
80022034:	e50b3014 	str	r3, [fp, #-20]	; 0xffffffec
        --n;
80022038:	e51b3018 	ldr	r3, [fp, #-24]	; 0xffffffe8
8002203c:	e2433001 	sub	r3, r3, #1
80022040:	e50b3018 	str	r3, [fp, #-24]	; 0xffffffe8

        if (c == '\n') {
80022044:	e51b300c 	ldr	r3, [fp, #-12]
80022048:	e353000a 	cmp	r3, #10
8002204c:	0a000005 	beq	80022068 <consoleread+0x170>
    iunlock(ip);

    target = n;
    acquire(&input.lock);

    while (n > 0) {
80022050:	e51b3018 	ldr	r3, [fp, #-24]	; 0xffffffe8
80022054:	e3530000 	cmp	r3, #0
80022058:	caffffc6 	bgt	80021f78 <consoleread+0x80>
8002205c:	ea000002 	b	8002206c <consoleread+0x174>
                // Save ^D for next time, to make sure
                // caller gets a 0-byte result.
                input.r--;
            }

            break;
80022060:	e1a00000 	nop			; (mov r0, r0)
80022064:	ea000000 	b	8002206c <consoleread+0x174>

        *dst++ = c;
        --n;

        if (c == '\n') {
            break;
80022068:	e1a00000 	nop			; (mov r0, r0)
        }
    }

    release(&input.lock);
8002206c:	e30c08b4 	movw	r0, #51380	; 0xc8b4
80022070:	e348000a 	movt	r0, #32778	; 0x800a
80022074:	eb00100e 	bl	800260b4 <release>
    ilock(ip);
80022078:	e51b0010 	ldr	r0, [fp, #-16]
8002207c:	eb0004af 	bl	80023340 <ilock>

    return target - n;
80022080:	e51b3018 	ldr	r3, [fp, #-24]	; 0xffffffe8
80022084:	e51b2008 	ldr	r2, [fp, #-8]
80022088:	e0633002 	rsb	r3, r3, r2
}
8002208c:	e1a00003 	mov	r0, r3
80022090:	e24bd004 	sub	sp, fp, #4
80022094:	e8bd8800 	pop	{fp, pc}
80022098:	800acae8 	.word	0x800acae8

8002209c <consolewrite>:

int consolewrite (struct inode *ip, char *buf, int n)
{
8002209c:	e92d4800 	push	{fp, lr}
800220a0:	e28db004 	add	fp, sp, #4
800220a4:	e24dd018 	sub	sp, sp, #24
800220a8:	e50b0010 	str	r0, [fp, #-16]
800220ac:	e50b1014 	str	r1, [fp, #-20]	; 0xffffffec
800220b0:	e50b2018 	str	r2, [fp, #-24]	; 0xffffffe8
    int i;

    iunlock(ip);
800220b4:	e51b0010 	ldr	r0, [fp, #-16]
800220b8:	eb000507 	bl	800234dc <iunlock>

    acquire(&cons.lock);
800220bc:	e30c087c 	movw	r0, #51324	; 0xc87c
800220c0:	e348000a 	movt	r0, #32778	; 0x800a
800220c4:	eb000ff0 	bl	8002608c <acquire>

    for (i = 0; i < n; i++) {
800220c8:	e3a03000 	mov	r3, #0
800220cc:	e50b3008 	str	r3, [fp, #-8]
800220d0:	ea000008 	b	800220f8 <consolewrite+0x5c>
        consputc(buf[i] & 0xff);
800220d4:	e51b3008 	ldr	r3, [fp, #-8]
800220d8:	e51b2014 	ldr	r2, [fp, #-20]	; 0xffffffec
800220dc:	e0823003 	add	r3, r2, r3
800220e0:	e5d33000 	ldrb	r3, [r3]
800220e4:	e1a00003 	mov	r0, r3
800220e8:	ebfffecb 	bl	80021c1c <consputc>

    iunlock(ip);

    acquire(&cons.lock);

    for (i = 0; i < n; i++) {
800220ec:	e51b3008 	ldr	r3, [fp, #-8]
800220f0:	e2833001 	add	r3, r3, #1
800220f4:	e50b3008 	str	r3, [fp, #-8]
800220f8:	e51b2008 	ldr	r2, [fp, #-8]
800220fc:	e51b3018 	ldr	r3, [fp, #-24]	; 0xffffffe8
80022100:	e1520003 	cmp	r2, r3
80022104:	bafffff2 	blt	800220d4 <consolewrite+0x38>
        consputc(buf[i] & 0xff);
    }

    release(&cons.lock);
80022108:	e30c087c 	movw	r0, #51324	; 0xc87c
8002210c:	e348000a 	movt	r0, #32778	; 0x800a
80022110:	eb000fe7 	bl	800260b4 <release>

    ilock(ip);
80022114:	e51b0010 	ldr	r0, [fp, #-16]
80022118:	eb000488 	bl	80023340 <ilock>

    return n;
8002211c:	e51b3018 	ldr	r3, [fp, #-24]	; 0xffffffe8
}
80022120:	e1a00003 	mov	r0, r3
80022124:	e24bd004 	sub	sp, fp, #4
80022128:	e8bd8800 	pop	{fp, pc}

8002212c <consoleinit>:

void consoleinit (void)
{
8002212c:	e92d4800 	push	{fp, lr}
80022130:	e28db004 	add	fp, sp, #4
    initlock(&cons.lock, "console");
80022134:	e30c087c 	movw	r0, #51324	; 0xc87c
80022138:	e348000a 	movt	r0, #32778	; 0x800a
8002213c:	e3091ccc 	movw	r1, #40140	; 0x9ccc
80022140:	e3481002 	movt	r1, #32770	; 0x8002
80022144:	eb000fbf 	bl	80026048 <initlock>
    initlock(&input.lock, "input");
80022148:	e30c08b4 	movw	r0, #51380	; 0xc8b4
8002214c:	e348000a 	movt	r0, #32778	; 0x800a
80022150:	e3091cd4 	movw	r1, #40148	; 0x9cd4
80022154:	e3481002 	movt	r1, #32770	; 0x8002
80022158:	eb000fba 	bl	80026048 <initlock>

    devsw[CONSOLE].write = consolewrite;
8002215c:	e30d3488 	movw	r3, #54408	; 0xd488
80022160:	e348300a 	movt	r3, #32778	; 0x800a
80022164:	e302209c 	movw	r2, #8348	; 0x209c
80022168:	e3482002 	movt	r2, #32770	; 0x8002
8002216c:	e583200c 	str	r2, [r3, #12]
    devsw[CONSOLE].read = consoleread;
80022170:	e30d3488 	movw	r3, #54408	; 0xd488
80022174:	e348300a 	movt	r3, #32778	; 0x800a
80022178:	e3012ef8 	movw	r2, #7928	; 0x1ef8
8002217c:	e3482002 	movt	r2, #32770	; 0x8002
80022180:	e5832008 	str	r2, [r3, #8]

    cons.locking = 1;
80022184:	e30c387c 	movw	r3, #51324	; 0xc87c
80022188:	e348300a 	movt	r3, #32778	; 0x800a
8002218c:	e3a02001 	mov	r2, #1
80022190:	e5832034 	str	r2, [r3, #52]	; 0x34
}
80022194:	e8bd8800 	pop	{fp, pc}

80022198 <exec>:
#include "elf.h"
#include "arm.h"

// load a user program for execution
int exec (char *path, char **argv)
{
80022198:	e92d4810 	push	{r4, fp, lr}
8002219c:	e28db008 	add	fp, sp, #8
800221a0:	e24ddf49 	sub	sp, sp, #292	; 0x124
800221a4:	e50b0120 	str	r0, [fp, #-288]	; 0xfffffee0
800221a8:	e50b1124 	str	r1, [fp, #-292]	; 0xfffffedc
    uint argc;
    uint sz;
    uint sp;
    uint ustack[3 + MAXARG + 1];

    if ((ip = namei(path)) == 0) {
800221ac:	e51b0120 	ldr	r0, [fp, #-288]	; 0xfffffee0
800221b0:	eb00085e 	bl	80024330 <namei>
800221b4:	e50b0010 	str	r0, [fp, #-16]
800221b8:	e51b3010 	ldr	r3, [fp, #-16]
800221bc:	e3530000 	cmp	r3, #0
800221c0:	1a000001 	bne	800221cc <exec+0x34>
        return -1;
800221c4:	e3e03000 	mvn	r3, #0
800221c8:	ea000133 	b	8002269c <exec+0x504>
    }

    ilock(ip);
800221cc:	e51b0010 	ldr	r0, [fp, #-16]
800221d0:	eb00045a 	bl	80023340 <ilock>

    // Check ELF header
    if (readi(ip, (char*) &elf, 0, sizeof(elf)) < sizeof(elf)) {
800221d4:	e51b0010 	ldr	r0, [fp, #-16]
800221d8:	e24b3068 	sub	r3, fp, #104	; 0x68
800221dc:	e1a01003 	mov	r1, r3
800221e0:	e3a02000 	mov	r2, #0
800221e4:	e3a03034 	mov	r3, #52	; 0x34
800221e8:	eb000614 	bl	80023a40 <readi>
800221ec:	e1a03000 	mov	r3, r0
800221f0:	e3530033 	cmp	r3, #51	; 0x33
800221f4:	9a000108 	bls	8002261c <exec+0x484>
        goto bad;
    }

    if (elf.magic != ELF_MAGIC) {
800221f8:	e51b2068 	ldr	r2, [fp, #-104]	; 0xffffff98
800221fc:	e304357f 	movw	r3, #17791	; 0x457f
80022200:	e344364c 	movt	r3, #17996	; 0x464c
80022204:	e1520003 	cmp	r2, r3
80022208:	1a000105 	bne	80022624 <exec+0x48c>
        goto bad;
    }

    pgdir = 0;
8002220c:	e3a03000 	mov	r3, #0
80022210:	e50b3014 	str	r3, [fp, #-20]	; 0xffffffec

    if ((pgdir = kpt_alloc()) == 0) {
80022214:	eb00178b 	bl	80028048 <kpt_alloc>
80022218:	e50b0014 	str	r0, [fp, #-20]	; 0xffffffec
8002221c:	e51b3014 	ldr	r3, [fp, #-20]	; 0xffffffec
80022220:	e3530000 	cmp	r3, #0
80022224:	0a000100 	beq	8002262c <exec+0x494>
        goto bad;
    }

    // Load program into memory.
    sz = 0;
80022228:	e3a03000 	mov	r3, #0
8002222c:	e50b302c 	str	r3, [fp, #-44]	; 0xffffffd4

    for (i = 0, off = elf.phoff; i < elf.phnum; i++, off += sizeof(ph)) {
80022230:	e3a03000 	mov	r3, #0
80022234:	e50b3020 	str	r3, [fp, #-32]	; 0xffffffe0
80022238:	e51b304c 	ldr	r3, [fp, #-76]	; 0xffffffb4
8002223c:	e50b3024 	str	r3, [fp, #-36]	; 0xffffffdc
80022240:	ea000030 	b	80022308 <exec+0x170>
        if (readi(ip, (char*) &ph, off, sizeof(ph)) != sizeof(ph)) {
80022244:	e51b3024 	ldr	r3, [fp, #-36]	; 0xffffffdc
80022248:	e51b0010 	ldr	r0, [fp, #-16]
8002224c:	e24b2088 	sub	r2, fp, #136	; 0x88
80022250:	e1a01002 	mov	r1, r2
80022254:	e1a02003 	mov	r2, r3
80022258:	e3a03020 	mov	r3, #32
8002225c:	eb0005f7 	bl	80023a40 <readi>
80022260:	e1a03000 	mov	r3, r0
80022264:	e3530020 	cmp	r3, #32
80022268:	1a0000f1 	bne	80022634 <exec+0x49c>
            goto bad;
        }

        if (ph.type != ELF_PROG_LOAD) {
8002226c:	e51b3088 	ldr	r3, [fp, #-136]	; 0xffffff78
80022270:	e3530001 	cmp	r3, #1
80022274:	1a00001c 	bne	800222ec <exec+0x154>
            continue;
        }

        if (ph.memsz < ph.filesz) {
80022278:	e51b2074 	ldr	r2, [fp, #-116]	; 0xffffff8c
8002227c:	e51b3078 	ldr	r3, [fp, #-120]	; 0xffffff88
80022280:	e1520003 	cmp	r2, r3
80022284:	3a0000ec 	bcc	8002263c <exec+0x4a4>
            goto bad;
        }

        if ((sz = allocuvm(pgdir, sz, ph.vaddr + ph.memsz)) == 0) {
80022288:	e51b2080 	ldr	r2, [fp, #-128]	; 0xffffff80
8002228c:	e51b3074 	ldr	r3, [fp, #-116]	; 0xffffff8c
80022290:	e0823003 	add	r3, r2, r3
80022294:	e51b0014 	ldr	r0, [fp, #-20]	; 0xffffffec
80022298:	e51b102c 	ldr	r1, [fp, #-44]	; 0xffffffd4
8002229c:	e1a02003 	mov	r2, r3
800222a0:	eb0018a0 	bl	80028528 <allocuvm>
800222a4:	e1a03000 	mov	r3, r0
800222a8:	e50b302c 	str	r3, [fp, #-44]	; 0xffffffd4
800222ac:	e51b302c 	ldr	r3, [fp, #-44]	; 0xffffffd4
800222b0:	e3530000 	cmp	r3, #0
800222b4:	0a0000e2 	beq	80022644 <exec+0x4ac>
            goto bad;
        }

        if (loaduvm(pgdir, (char*) ph.vaddr, ip, ph.off, ph.filesz) < 0) {
800222b8:	e51b3080 	ldr	r3, [fp, #-128]	; 0xffffff80
800222bc:	e1a02003 	mov	r2, r3
800222c0:	e51b3084 	ldr	r3, [fp, #-132]	; 0xffffff7c
800222c4:	e51b1078 	ldr	r1, [fp, #-120]	; 0xffffff88
800222c8:	e58d1000 	str	r1, [sp]
800222cc:	e51b0014 	ldr	r0, [fp, #-20]	; 0xffffffec
800222d0:	e1a01002 	mov	r1, r2
800222d4:	e51b2010 	ldr	r2, [fp, #-16]
800222d8:	eb001843 	bl	800283ec <loaduvm>
800222dc:	e1a03000 	mov	r3, r0
800222e0:	e3530000 	cmp	r3, #0
800222e4:	ba0000d8 	blt	8002264c <exec+0x4b4>
800222e8:	ea000000 	b	800222f0 <exec+0x158>
        if (readi(ip, (char*) &ph, off, sizeof(ph)) != sizeof(ph)) {
            goto bad;
        }

        if (ph.type != ELF_PROG_LOAD) {
            continue;
800222ec:	e1a00000 	nop			; (mov r0, r0)
    }

    // Load program into memory.
    sz = 0;

    for (i = 0, off = elf.phoff; i < elf.phnum; i++, off += sizeof(ph)) {
800222f0:	e51b3020 	ldr	r3, [fp, #-32]	; 0xffffffe0
800222f4:	e2833001 	add	r3, r3, #1
800222f8:	e50b3020 	str	r3, [fp, #-32]	; 0xffffffe0
800222fc:	e51b3024 	ldr	r3, [fp, #-36]	; 0xffffffdc
80022300:	e2833020 	add	r3, r3, #32
80022304:	e50b3024 	str	r3, [fp, #-36]	; 0xffffffdc
80022308:	e15b33bc 	ldrh	r3, [fp, #-60]	; 0xffffffc4
8002230c:	e1a02003 	mov	r2, r3
80022310:	e51b3020 	ldr	r3, [fp, #-32]	; 0xffffffe0
80022314:	e1520003 	cmp	r2, r3
80022318:	caffffc9 	bgt	80022244 <exec+0xac>
        if (loaduvm(pgdir, (char*) ph.vaddr, ip, ph.off, ph.filesz) < 0) {
            goto bad;
        }
    }

    iunlockput(ip);
8002231c:	e51b0010 	ldr	r0, [fp, #-16]
80022320:	eb0004cd 	bl	8002365c <iunlockput>
    ip = 0;
80022324:	e3a03000 	mov	r3, #0
80022328:	e50b3010 	str	r3, [fp, #-16]

    // Allocate two pages at the next page boundary.
    // Make the first inaccessible.  Use the second as the user stack.
    sz = align_up (sz, PTE_SZ);
8002232c:	e51b302c 	ldr	r3, [fp, #-44]	; 0xffffffd4
80022330:	e2833eff 	add	r3, r3, #4080	; 0xff0
80022334:	e283300f 	add	r3, r3, #15
80022338:	e3c33eff 	bic	r3, r3, #4080	; 0xff0
8002233c:	e3c3300f 	bic	r3, r3, #15
80022340:	e50b302c 	str	r3, [fp, #-44]	; 0xffffffd4

    if ((sz = allocuvm(pgdir, sz, sz + 2 * PTE_SZ)) == 0) {
80022344:	e51b302c 	ldr	r3, [fp, #-44]	; 0xffffffd4
80022348:	e2833a02 	add	r3, r3, #8192	; 0x2000
8002234c:	e51b0014 	ldr	r0, [fp, #-20]	; 0xffffffec
80022350:	e51b102c 	ldr	r1, [fp, #-44]	; 0xffffffd4
80022354:	e1a02003 	mov	r2, r3
80022358:	eb001872 	bl	80028528 <allocuvm>
8002235c:	e1a03000 	mov	r3, r0
80022360:	e50b302c 	str	r3, [fp, #-44]	; 0xffffffd4
80022364:	e51b302c 	ldr	r3, [fp, #-44]	; 0xffffffd4
80022368:	e3530000 	cmp	r3, #0
8002236c:	0a0000b8 	beq	80022654 <exec+0x4bc>
        goto bad;
    }

    clearpteu(pgdir, (char*) (sz - 2 * PTE_SZ));
80022370:	e51b302c 	ldr	r3, [fp, #-44]	; 0xffffffd4
80022374:	e2433a02 	sub	r3, r3, #8192	; 0x2000
80022378:	e51b0014 	ldr	r0, [fp, #-20]	; 0xffffffec
8002237c:	e1a01003 	mov	r1, r3
80022380:	eb00191c 	bl	800287f8 <clearpteu>

    sp = sz;
80022384:	e51b302c 	ldr	r3, [fp, #-44]	; 0xffffffd4
80022388:	e50b3030 	str	r3, [fp, #-48]	; 0xffffffd0

    // Push argument strings, prepare rest of stack in ustack.
    for (argc = 0; argv[argc]; argc++) {
8002238c:	e3a03000 	mov	r3, #0
80022390:	e50b3028 	str	r3, [fp, #-40]	; 0xffffffd8
80022394:	ea000031 	b	80022460 <exec+0x2c8>
        if (argc >= MAXARG) {
80022398:	e51b3028 	ldr	r3, [fp, #-40]	; 0xffffffd8
8002239c:	e353001f 	cmp	r3, #31
800223a0:	8a0000ad 	bhi	8002265c <exec+0x4c4>
            goto bad;
        }

        sp = (sp - (strlen(argv[argc]) + 1)) & ~3;
800223a4:	e51b3028 	ldr	r3, [fp, #-40]	; 0xffffffd8
800223a8:	e1a03103 	lsl	r3, r3, #2
800223ac:	e51b2124 	ldr	r2, [fp, #-292]	; 0xfffffedc
800223b0:	e0823003 	add	r3, r2, r3
800223b4:	e5933000 	ldr	r3, [r3]
800223b8:	e1a00003 	mov	r0, r3
800223bc:	ebfff876 	bl	8002059c <strlen>
800223c0:	e1a03000 	mov	r3, r0
800223c4:	e1e03003 	mvn	r3, r3
800223c8:	e1a02003 	mov	r2, r3
800223cc:	e51b3030 	ldr	r3, [fp, #-48]	; 0xffffffd0
800223d0:	e0823003 	add	r3, r2, r3
800223d4:	e3c33003 	bic	r3, r3, #3
800223d8:	e50b3030 	str	r3, [fp, #-48]	; 0xffffffd0

        if (copyout(pgdir, sp, argv[argc], strlen(argv[argc]) + 1) < 0) {
800223dc:	e51b3028 	ldr	r3, [fp, #-40]	; 0xffffffd8
800223e0:	e1a03103 	lsl	r3, r3, #2
800223e4:	e51b2124 	ldr	r2, [fp, #-292]	; 0xfffffedc
800223e8:	e0823003 	add	r3, r2, r3
800223ec:	e5934000 	ldr	r4, [r3]
800223f0:	e51b3028 	ldr	r3, [fp, #-40]	; 0xffffffd8
800223f4:	e1a03103 	lsl	r3, r3, #2
800223f8:	e51b2124 	ldr	r2, [fp, #-292]	; 0xfffffedc
800223fc:	e0823003 	add	r3, r2, r3
80022400:	e5933000 	ldr	r3, [r3]
80022404:	e1a00003 	mov	r0, r3
80022408:	ebfff863 	bl	8002059c <strlen>
8002240c:	e1a03000 	mov	r3, r0
80022410:	e2833001 	add	r3, r3, #1
80022414:	e51b0014 	ldr	r0, [fp, #-20]	; 0xffffffec
80022418:	e51b1030 	ldr	r1, [fp, #-48]	; 0xffffffd0
8002241c:	e1a02004 	mov	r2, r4
80022420:	eb001987 	bl	80028a44 <copyout>
80022424:	e1a03000 	mov	r3, r0
80022428:	e3530000 	cmp	r3, #0
8002242c:	ba00008c 	blt	80022664 <exec+0x4cc>
            goto bad;
        }

        ustack[argc] = sp;
80022430:	e51b2028 	ldr	r2, [fp, #-40]	; 0xffffffd8
80022434:	e30f3ef4 	movw	r3, #65268	; 0xfef4
80022438:	e34f3fff 	movt	r3, #65535	; 0xffff
8002243c:	e1a02102 	lsl	r2, r2, #2
80022440:	e24b100c 	sub	r1, fp, #12
80022444:	e0812002 	add	r2, r1, r2
80022448:	e0823003 	add	r3, r2, r3
8002244c:	e51b2030 	ldr	r2, [fp, #-48]	; 0xffffffd0
80022450:	e5832000 	str	r2, [r3]
    clearpteu(pgdir, (char*) (sz - 2 * PTE_SZ));

    sp = sz;

    // Push argument strings, prepare rest of stack in ustack.
    for (argc = 0; argv[argc]; argc++) {
80022454:	e51b3028 	ldr	r3, [fp, #-40]	; 0xffffffd8
80022458:	e2833001 	add	r3, r3, #1
8002245c:	e50b3028 	str	r3, [fp, #-40]	; 0xffffffd8
80022460:	e51b3028 	ldr	r3, [fp, #-40]	; 0xffffffd8
80022464:	e1a03103 	lsl	r3, r3, #2
80022468:	e51b2124 	ldr	r2, [fp, #-292]	; 0xfffffedc
8002246c:	e0823003 	add	r3, r2, r3
80022470:	e5933000 	ldr	r3, [r3]
80022474:	e3530000 	cmp	r3, #0
80022478:	1affffc6 	bne	80022398 <exec+0x200>
        }

        ustack[argc] = sp;
    }

    ustack[argc] = 0;
8002247c:	e51b2028 	ldr	r2, [fp, #-40]	; 0xffffffd8
80022480:	e30f3ef4 	movw	r3, #65268	; 0xfef4
80022484:	e34f3fff 	movt	r3, #65535	; 0xffff
80022488:	e1a02102 	lsl	r2, r2, #2
8002248c:	e24b100c 	sub	r1, fp, #12
80022490:	e0812002 	add	r2, r1, r2
80022494:	e0823003 	add	r3, r2, r3
80022498:	e3a02000 	mov	r2, #0
8002249c:	e5832000 	str	r2, [r3]

    // in ARM, parameters are passed in r0 and r1
    proc->tf->r0 = argc;
800224a0:	e30e360c 	movw	r3, #58892	; 0xe60c
800224a4:	e348300a 	movt	r3, #32778	; 0x800a
800224a8:	e5933000 	ldr	r3, [r3]
800224ac:	e593301c 	ldr	r3, [r3, #28]
800224b0:	e51b2028 	ldr	r2, [fp, #-40]	; 0xffffffd8
800224b4:	e5832010 	str	r2, [r3, #16]
    proc->tf->r1 = sp - (argc + 1) * 4;
800224b8:	e30e360c 	movw	r3, #58892	; 0xe60c
800224bc:	e348300a 	movt	r3, #32778	; 0x800a
800224c0:	e5933000 	ldr	r3, [r3]
800224c4:	e593301c 	ldr	r3, [r3, #28]
800224c8:	e51b2028 	ldr	r2, [fp, #-40]	; 0xffffffd8
800224cc:	e2822001 	add	r2, r2, #1
800224d0:	e1a02102 	lsl	r2, r2, #2
800224d4:	e51b1030 	ldr	r1, [fp, #-48]	; 0xffffffd0
800224d8:	e0622001 	rsb	r2, r2, r1
800224dc:	e5832014 	str	r2, [r3, #20]

    sp -= (argc + 1) * 4;
800224e0:	e51b3028 	ldr	r3, [fp, #-40]	; 0xffffffd8
800224e4:	e2833001 	add	r3, r3, #1
800224e8:	e1a03103 	lsl	r3, r3, #2
800224ec:	e51b2030 	ldr	r2, [fp, #-48]	; 0xffffffd0
800224f0:	e0633002 	rsb	r3, r3, r2
800224f4:	e50b3030 	str	r3, [fp, #-48]	; 0xffffffd0

    if (copyout(pgdir, sp, ustack, (argc + 1) * 4) < 0) {
800224f8:	e51b3028 	ldr	r3, [fp, #-40]	; 0xffffffd8
800224fc:	e2833001 	add	r3, r3, #1
80022500:	e1a03103 	lsl	r3, r3, #2
80022504:	e51b0014 	ldr	r0, [fp, #-20]	; 0xffffffec
80022508:	e51b1030 	ldr	r1, [fp, #-48]	; 0xffffffd0
8002250c:	e24b2f46 	sub	r2, fp, #280	; 0x118
80022510:	eb00194b 	bl	80028a44 <copyout>
80022514:	e1a03000 	mov	r3, r0
80022518:	e3530000 	cmp	r3, #0
8002251c:	ba000052 	blt	8002266c <exec+0x4d4>
        goto bad;
    }

    // Save program name for debugging.
    for (last = s = path; *s; s++) {
80022520:	e51b3120 	ldr	r3, [fp, #-288]	; 0xfffffee0
80022524:	e50b3018 	str	r3, [fp, #-24]	; 0xffffffe8
80022528:	e51b3018 	ldr	r3, [fp, #-24]	; 0xffffffe8
8002252c:	e50b301c 	str	r3, [fp, #-28]	; 0xffffffe4
80022530:	ea000009 	b	8002255c <exec+0x3c4>
        if (*s == '/') {
80022534:	e51b3018 	ldr	r3, [fp, #-24]	; 0xffffffe8
80022538:	e5d33000 	ldrb	r3, [r3]
8002253c:	e353002f 	cmp	r3, #47	; 0x2f
80022540:	1a000002 	bne	80022550 <exec+0x3b8>
            last = s + 1;
80022544:	e51b3018 	ldr	r3, [fp, #-24]	; 0xffffffe8
80022548:	e2833001 	add	r3, r3, #1
8002254c:	e50b301c 	str	r3, [fp, #-28]	; 0xffffffe4
    if (copyout(pgdir, sp, ustack, (argc + 1) * 4) < 0) {
        goto bad;
    }

    // Save program name for debugging.
    for (last = s = path; *s; s++) {
80022550:	e51b3018 	ldr	r3, [fp, #-24]	; 0xffffffe8
80022554:	e2833001 	add	r3, r3, #1
80022558:	e50b3018 	str	r3, [fp, #-24]	; 0xffffffe8
8002255c:	e51b3018 	ldr	r3, [fp, #-24]	; 0xffffffe8
80022560:	e5d33000 	ldrb	r3, [r3]
80022564:	e3530000 	cmp	r3, #0
80022568:	1afffff1 	bne	80022534 <exec+0x39c>
        if (*s == '/') {
            last = s + 1;
        }
    }

    safestrcpy(proc->name, last, sizeof(proc->name));
8002256c:	e30e360c 	movw	r3, #58892	; 0xe60c
80022570:	e348300a 	movt	r3, #32778	; 0x800a
80022574:	e5933000 	ldr	r3, [r3]
80022578:	e2833070 	add	r3, r3, #112	; 0x70
8002257c:	e1a00003 	mov	r0, r3
80022580:	e51b101c 	ldr	r1, [fp, #-28]	; 0xffffffe4
80022584:	e3a02010 	mov	r2, #16
80022588:	ebfff7d6 	bl	800204e8 <safestrcpy>

    // Commit to the user image.
    oldpgdir = proc->pgdir;
8002258c:	e30e360c 	movw	r3, #58892	; 0xe60c
80022590:	e348300a 	movt	r3, #32778	; 0x800a
80022594:	e5933000 	ldr	r3, [r3]
80022598:	e5933004 	ldr	r3, [r3, #4]
8002259c:	e50b3034 	str	r3, [fp, #-52]	; 0xffffffcc
    proc->pgdir = pgdir;
800225a0:	e30e360c 	movw	r3, #58892	; 0xe60c
800225a4:	e348300a 	movt	r3, #32778	; 0x800a
800225a8:	e5933000 	ldr	r3, [r3]
800225ac:	e51b2014 	ldr	r2, [fp, #-20]	; 0xffffffec
800225b0:	e5832004 	str	r2, [r3, #4]
    proc->sz = sz;
800225b4:	e30e360c 	movw	r3, #58892	; 0xe60c
800225b8:	e348300a 	movt	r3, #32778	; 0x800a
800225bc:	e5933000 	ldr	r3, [r3]
800225c0:	e51b202c 	ldr	r2, [fp, #-44]	; 0xffffffd4
800225c4:	e5832000 	str	r2, [r3]
    proc->tf->pc = elf.entry;
800225c8:	e30e360c 	movw	r3, #58892	; 0xe60c
800225cc:	e348300a 	movt	r3, #32778	; 0x800a
800225d0:	e5933000 	ldr	r3, [r3]
800225d4:	e593301c 	ldr	r3, [r3, #28]
800225d8:	e51b2050 	ldr	r2, [fp, #-80]	; 0xffffffb0
800225dc:	e5832044 	str	r2, [r3, #68]	; 0x44
    proc->tf->sp_usr = sp;
800225e0:	e30e360c 	movw	r3, #58892	; 0xe60c
800225e4:	e348300a 	movt	r3, #32778	; 0x800a
800225e8:	e5933000 	ldr	r3, [r3]
800225ec:	e593301c 	ldr	r3, [r3, #28]
800225f0:	e51b2030 	ldr	r2, [fp, #-48]	; 0xffffffd0
800225f4:	e5832000 	str	r2, [r3]

    switchuvm(proc);
800225f8:	e30e360c 	movw	r3, #58892	; 0xe60c
800225fc:	e348300a 	movt	r3, #32778	; 0x800a
80022600:	e5933000 	ldr	r3, [r3]
80022604:	e1a00003 	mov	r0, r3
80022608:	eb001738 	bl	800282f0 <switchuvm>
    freevm(oldpgdir);
8002260c:	e51b0034 	ldr	r0, [fp, #-52]	; 0xffffffcc
80022610:	eb001849 	bl	8002873c <freevm>
    return 0;
80022614:	e3a03000 	mov	r3, #0
80022618:	ea00001f 	b	8002269c <exec+0x504>

    ilock(ip);

    // Check ELF header
    if (readi(ip, (char*) &elf, 0, sizeof(elf)) < sizeof(elf)) {
        goto bad;
8002261c:	e1a00000 	nop			; (mov r0, r0)
80022620:	ea000012 	b	80022670 <exec+0x4d8>
    }

    if (elf.magic != ELF_MAGIC) {
        goto bad;
80022624:	e1a00000 	nop			; (mov r0, r0)
80022628:	ea000010 	b	80022670 <exec+0x4d8>
    }

    pgdir = 0;

    if ((pgdir = kpt_alloc()) == 0) {
        goto bad;
8002262c:	e1a00000 	nop			; (mov r0, r0)
80022630:	ea00000e 	b	80022670 <exec+0x4d8>
    // Load program into memory.
    sz = 0;

    for (i = 0, off = elf.phoff; i < elf.phnum; i++, off += sizeof(ph)) {
        if (readi(ip, (char*) &ph, off, sizeof(ph)) != sizeof(ph)) {
            goto bad;
80022634:	e1a00000 	nop			; (mov r0, r0)
80022638:	ea00000c 	b	80022670 <exec+0x4d8>
        if (ph.type != ELF_PROG_LOAD) {
            continue;
        }

        if (ph.memsz < ph.filesz) {
            goto bad;
8002263c:	e1a00000 	nop			; (mov r0, r0)
80022640:	ea00000a 	b	80022670 <exec+0x4d8>
        }

        if ((sz = allocuvm(pgdir, sz, ph.vaddr + ph.memsz)) == 0) {
            goto bad;
80022644:	e1a00000 	nop			; (mov r0, r0)
80022648:	ea000008 	b	80022670 <exec+0x4d8>
        }

        if (loaduvm(pgdir, (char*) ph.vaddr, ip, ph.off, ph.filesz) < 0) {
            goto bad;
8002264c:	e1a00000 	nop			; (mov r0, r0)
80022650:	ea000006 	b	80022670 <exec+0x4d8>
    // Allocate two pages at the next page boundary.
    // Make the first inaccessible.  Use the second as the user stack.
    sz = align_up (sz, PTE_SZ);

    if ((sz = allocuvm(pgdir, sz, sz + 2 * PTE_SZ)) == 0) {
        goto bad;
80022654:	e1a00000 	nop			; (mov r0, r0)
80022658:	ea000004 	b	80022670 <exec+0x4d8>
    sp = sz;

    // Push argument strings, prepare rest of stack in ustack.
    for (argc = 0; argv[argc]; argc++) {
        if (argc >= MAXARG) {
            goto bad;
8002265c:	e1a00000 	nop			; (mov r0, r0)
80022660:	ea000002 	b	80022670 <exec+0x4d8>
        }

        sp = (sp - (strlen(argv[argc]) + 1)) & ~3;

        if (copyout(pgdir, sp, argv[argc], strlen(argv[argc]) + 1) < 0) {
            goto bad;
80022664:	e1a00000 	nop			; (mov r0, r0)
80022668:	ea000000 	b	80022670 <exec+0x4d8>
    proc->tf->r1 = sp - (argc + 1) * 4;

    sp -= (argc + 1) * 4;

    if (copyout(pgdir, sp, ustack, (argc + 1) * 4) < 0) {
        goto bad;
8002266c:	e1a00000 	nop			; (mov r0, r0)

    switchuvm(proc);
    freevm(oldpgdir);
    return 0;

    bad: if (pgdir) {
80022670:	e51b3014 	ldr	r3, [fp, #-20]	; 0xffffffec
80022674:	e3530000 	cmp	r3, #0
80022678:	0a000001 	beq	80022684 <exec+0x4ec>
        freevm(pgdir);
8002267c:	e51b0014 	ldr	r0, [fp, #-20]	; 0xffffffec
80022680:	eb00182d 	bl	8002873c <freevm>
    }

    if (ip) {
80022684:	e51b3010 	ldr	r3, [fp, #-16]
80022688:	e3530000 	cmp	r3, #0
8002268c:	0a000001 	beq	80022698 <exec+0x500>
        iunlockput(ip);
80022690:	e51b0010 	ldr	r0, [fp, #-16]
80022694:	eb0003f0 	bl	8002365c <iunlockput>
    }
    return -1;
80022698:	e3e03000 	mvn	r3, #0
}
8002269c:	e1a00003 	mov	r0, r3
800226a0:	e24bd008 	sub	sp, fp, #8
800226a4:	e8bd8810 	pop	{r4, fp, pc}

800226a8 <fileinit>:
    struct spinlock lock;
    struct file file[NFILE];
} ftable;

void fileinit (void)
{
800226a8:	e92d4800 	push	{fp, lr}
800226ac:	e28db004 	add	fp, sp, #4
    initlock(&ftable.lock, "ftable");
800226b0:	e30c0af4 	movw	r0, #51956	; 0xcaf4
800226b4:	e348000a 	movt	r0, #32778	; 0x800a
800226b8:	e3091cdc 	movw	r1, #40156	; 0x9cdc
800226bc:	e3481002 	movt	r1, #32770	; 0x8002
800226c0:	eb000e60 	bl	80026048 <initlock>
}
800226c4:	e8bd8800 	pop	{fp, pc}

800226c8 <filealloc>:

// Allocate a file structure.
struct file* filealloc (void)
{
800226c8:	e92d4800 	push	{fp, lr}
800226cc:	e28db004 	add	fp, sp, #4
800226d0:	e24dd008 	sub	sp, sp, #8
    struct file *f;

    acquire(&ftable.lock);
800226d4:	e30c0af4 	movw	r0, #51956	; 0xcaf4
800226d8:	e348000a 	movt	r0, #32778	; 0x800a
800226dc:	eb000e6a 	bl	8002608c <acquire>

    for (f = ftable.file; f < ftable.file + NFILE; f++) {
800226e0:	e59f306c 	ldr	r3, [pc, #108]	; 80022754 <filealloc+0x8c>
800226e4:	e50b3008 	str	r3, [fp, #-8]
800226e8:	ea00000e 	b	80022728 <filealloc+0x60>
        if (f->ref == 0) {
800226ec:	e51b3008 	ldr	r3, [fp, #-8]
800226f0:	e5933004 	ldr	r3, [r3, #4]
800226f4:	e3530000 	cmp	r3, #0
800226f8:	1a000007 	bne	8002271c <filealloc+0x54>
            f->ref = 1;
800226fc:	e51b3008 	ldr	r3, [fp, #-8]
80022700:	e3a02001 	mov	r2, #1
80022704:	e5832004 	str	r2, [r3, #4]
            release(&ftable.lock);
80022708:	e30c0af4 	movw	r0, #51956	; 0xcaf4
8002270c:	e348000a 	movt	r0, #32778	; 0x800a
80022710:	eb000e67 	bl	800260b4 <release>
            return f;
80022714:	e51b3008 	ldr	r3, [fp, #-8]
80022718:	ea00000a 	b	80022748 <filealloc+0x80>
{
    struct file *f;

    acquire(&ftable.lock);

    for (f = ftable.file; f < ftable.file + NFILE; f++) {
8002271c:	e51b3008 	ldr	r3, [fp, #-8]
80022720:	e2833018 	add	r3, r3, #24
80022724:	e50b3008 	str	r3, [fp, #-8]
80022728:	e51b2008 	ldr	r2, [fp, #-8]
8002272c:	e59f3024 	ldr	r3, [pc, #36]	; 80022758 <filealloc+0x90>
80022730:	e1520003 	cmp	r2, r3
80022734:	3affffec 	bcc	800226ec <filealloc+0x24>
            release(&ftable.lock);
            return f;
        }
    }

    release(&ftable.lock);
80022738:	e30c0af4 	movw	r0, #51956	; 0xcaf4
8002273c:	e348000a 	movt	r0, #32778	; 0x800a
80022740:	eb000e5b 	bl	800260b4 <release>
    return 0;
80022744:	e3a03000 	mov	r3, #0
}
80022748:	e1a00003 	mov	r0, r3
8002274c:	e24bd004 	sub	sp, fp, #4
80022750:	e8bd8800 	pop	{fp, pc}
80022754:	800acb28 	.word	0x800acb28
80022758:	800ad488 	.word	0x800ad488

8002275c <filedup>:

// Increment ref count for file f.
struct file* filedup (struct file *f)
{
8002275c:	e92d4800 	push	{fp, lr}
80022760:	e28db004 	add	fp, sp, #4
80022764:	e24dd008 	sub	sp, sp, #8
80022768:	e50b0008 	str	r0, [fp, #-8]
    acquire(&ftable.lock);
8002276c:	e30c0af4 	movw	r0, #51956	; 0xcaf4
80022770:	e348000a 	movt	r0, #32778	; 0x800a
80022774:	eb000e44 	bl	8002608c <acquire>

    if (f->ref < 1) {
80022778:	e51b3008 	ldr	r3, [fp, #-8]
8002277c:	e5933004 	ldr	r3, [r3, #4]
80022780:	e3530000 	cmp	r3, #0
80022784:	ca000002 	bgt	80022794 <filedup+0x38>
        panic("filedup");
80022788:	e3090ce4 	movw	r0, #40164	; 0x9ce4
8002278c:	e3480002 	movt	r0, #32770	; 0x8002
80022790:	ebfffd09 	bl	80021bbc <panic>
    }

    f->ref++;
80022794:	e51b3008 	ldr	r3, [fp, #-8]
80022798:	e5933004 	ldr	r3, [r3, #4]
8002279c:	e2832001 	add	r2, r3, #1
800227a0:	e51b3008 	ldr	r3, [fp, #-8]
800227a4:	e5832004 	str	r2, [r3, #4]
    release(&ftable.lock);
800227a8:	e30c0af4 	movw	r0, #51956	; 0xcaf4
800227ac:	e348000a 	movt	r0, #32778	; 0x800a
800227b0:	eb000e3f 	bl	800260b4 <release>
    return f;
800227b4:	e51b3008 	ldr	r3, [fp, #-8]
}
800227b8:	e1a00003 	mov	r0, r3
800227bc:	e24bd004 	sub	sp, fp, #4
800227c0:	e8bd8800 	pop	{fp, pc}

800227c4 <fileclose>:

// Close file f.  (Decrement ref count, close when reaches 0.)
void fileclose (struct file *f)
{
800227c4:	e92d4800 	push	{fp, lr}
800227c8:	e28db004 	add	fp, sp, #4
800227cc:	e24dd020 	sub	sp, sp, #32
800227d0:	e50b0020 	str	r0, [fp, #-32]	; 0xffffffe0
    struct file ff;

    acquire(&ftable.lock);
800227d4:	e30c0af4 	movw	r0, #51956	; 0xcaf4
800227d8:	e348000a 	movt	r0, #32778	; 0x800a
800227dc:	eb000e2a 	bl	8002608c <acquire>

    if (f->ref < 1) {
800227e0:	e51b3020 	ldr	r3, [fp, #-32]	; 0xffffffe0
800227e4:	e5933004 	ldr	r3, [r3, #4]
800227e8:	e3530000 	cmp	r3, #0
800227ec:	ca000002 	bgt	800227fc <fileclose+0x38>
        panic("fileclose");
800227f0:	e3090cec 	movw	r0, #40172	; 0x9cec
800227f4:	e3480002 	movt	r0, #32770	; 0x8002
800227f8:	ebfffcef 	bl	80021bbc <panic>
    }

    if (--f->ref > 0) {
800227fc:	e51b3020 	ldr	r3, [fp, #-32]	; 0xffffffe0
80022800:	e5933004 	ldr	r3, [r3, #4]
80022804:	e2432001 	sub	r2, r3, #1
80022808:	e51b3020 	ldr	r3, [fp, #-32]	; 0xffffffe0
8002280c:	e5832004 	str	r2, [r3, #4]
80022810:	e51b3020 	ldr	r3, [fp, #-32]	; 0xffffffe0
80022814:	e5933004 	ldr	r3, [r3, #4]
80022818:	e3530000 	cmp	r3, #0
8002281c:	da000003 	ble	80022830 <fileclose+0x6c>
        release(&ftable.lock);
80022820:	e30c0af4 	movw	r0, #51956	; 0xcaf4
80022824:	e348000a 	movt	r0, #32778	; 0x800a
80022828:	eb000e21 	bl	800260b4 <release>
        return;
8002282c:	ea000020 	b	800228b4 <fileclose+0xf0>
    }

    ff = *f;
80022830:	e51b3020 	ldr	r3, [fp, #-32]	; 0xffffffe0
80022834:	e24bc01c 	sub	ip, fp, #28
80022838:	e1a0e003 	mov	lr, r3
8002283c:	e8be000f 	ldm	lr!, {r0, r1, r2, r3}
80022840:	e8ac000f 	stmia	ip!, {r0, r1, r2, r3}
80022844:	e89e0003 	ldm	lr, {r0, r1}
80022848:	e88c0003 	stm	ip, {r0, r1}
    f->ref = 0;
8002284c:	e51b3020 	ldr	r3, [fp, #-32]	; 0xffffffe0
80022850:	e3a02000 	mov	r2, #0
80022854:	e5832004 	str	r2, [r3, #4]
    f->type = FD_NONE;
80022858:	e51b3020 	ldr	r3, [fp, #-32]	; 0xffffffe0
8002285c:	e3a02000 	mov	r2, #0
80022860:	e5c32000 	strb	r2, [r3]
    release(&ftable.lock);
80022864:	e30c0af4 	movw	r0, #51956	; 0xcaf4
80022868:	e348000a 	movt	r0, #32778	; 0x800a
8002286c:	eb000e10 	bl	800260b4 <release>

    if (ff.type == FD_PIPE) {
80022870:	e55b301c 	ldrb	r3, [fp, #-28]	; 0xffffffe4
80022874:	e3530001 	cmp	r3, #1
80022878:	1a000005 	bne	80022894 <fileclose+0xd0>
        pipeclose(ff.pipe, ff.writable);
8002287c:	e51b2010 	ldr	r2, [fp, #-16]
80022880:	e55b3013 	ldrb	r3, [fp, #-19]	; 0xffffffed
80022884:	e1a00002 	mov	r0, r2
80022888:	e1a01003 	mov	r1, r3
8002288c:	eb000950 	bl	80024dd4 <pipeclose>
80022890:	ea000007 	b	800228b4 <fileclose+0xf0>

    } else if (ff.type == FD_INODE) {
80022894:	e55b301c 	ldrb	r3, [fp, #-28]	; 0xffffffe4
80022898:	e3530002 	cmp	r3, #2
8002289c:	1a000004 	bne	800228b4 <fileclose+0xf0>
        begin_trans();
800228a0:	eb000796 	bl	80024700 <begin_trans>
        iput(ff.ip);
800228a4:	e51b300c 	ldr	r3, [fp, #-12]
800228a8:	e1a00003 	mov	r0, r3
800228ac:	eb00032c 	bl	80023564 <iput>
        commit_trans();
800228b0:	eb0007aa 	bl	80024760 <commit_trans>
    }
}
800228b4:	e24bd004 	sub	sp, fp, #4
800228b8:	e8bd8800 	pop	{fp, pc}

800228bc <filestat>:

// Get metadata about file f.
int filestat (struct file *f, struct stat *st)
{
800228bc:	e92d4800 	push	{fp, lr}
800228c0:	e28db004 	add	fp, sp, #4
800228c4:	e24dd008 	sub	sp, sp, #8
800228c8:	e50b0008 	str	r0, [fp, #-8]
800228cc:	e50b100c 	str	r1, [fp, #-12]
    if (f->type == FD_INODE) {
800228d0:	e51b3008 	ldr	r3, [fp, #-8]
800228d4:	e5d33000 	ldrb	r3, [r3]
800228d8:	e3530002 	cmp	r3, #2
800228dc:	1a00000e 	bne	8002291c <filestat+0x60>
        ilock(f->ip);
800228e0:	e51b3008 	ldr	r3, [fp, #-8]
800228e4:	e5933010 	ldr	r3, [r3, #16]
800228e8:	e1a00003 	mov	r0, r3
800228ec:	eb000293 	bl	80023340 <ilock>
        stati(f->ip, st);
800228f0:	e51b3008 	ldr	r3, [fp, #-8]
800228f4:	e5933010 	ldr	r3, [r3, #16]
800228f8:	e1a00003 	mov	r0, r3
800228fc:	e51b100c 	ldr	r1, [fp, #-12]
80022900:	eb000431 	bl	800239cc <stati>
        iunlock(f->ip);
80022904:	e51b3008 	ldr	r3, [fp, #-8]
80022908:	e5933010 	ldr	r3, [r3, #16]
8002290c:	e1a00003 	mov	r0, r3
80022910:	eb0002f1 	bl	800234dc <iunlock>

        return 0;
80022914:	e3a03000 	mov	r3, #0
80022918:	ea000000 	b	80022920 <filestat+0x64>
    }

    return -1;
8002291c:	e3e03000 	mvn	r3, #0
}
80022920:	e1a00003 	mov	r0, r3
80022924:	e24bd004 	sub	sp, fp, #4
80022928:	e8bd8800 	pop	{fp, pc}

8002292c <fileread>:

// Read from file f.
int fileread (struct file *f, char *addr, int n)
{
8002292c:	e92d4800 	push	{fp, lr}
80022930:	e28db004 	add	fp, sp, #4
80022934:	e24dd018 	sub	sp, sp, #24
80022938:	e50b0010 	str	r0, [fp, #-16]
8002293c:	e50b1014 	str	r1, [fp, #-20]	; 0xffffffec
80022940:	e50b2018 	str	r2, [fp, #-24]	; 0xffffffe8
    int r;

    if (f->readable == 0) {
80022944:	e51b3010 	ldr	r3, [fp, #-16]
80022948:	e5d33008 	ldrb	r3, [r3, #8]
8002294c:	e3530000 	cmp	r3, #0
80022950:	1a000001 	bne	8002295c <fileread+0x30>
        return -1;
80022954:	e3e03000 	mvn	r3, #0
80022958:	ea00002e 	b	80022a18 <fileread+0xec>
    }

    if (f->type == FD_PIPE) {
8002295c:	e51b3010 	ldr	r3, [fp, #-16]
80022960:	e5d33000 	ldrb	r3, [r3]
80022964:	e3530001 	cmp	r3, #1
80022968:	1a000007 	bne	8002298c <fileread+0x60>
        return piperead(f->pipe, addr, n);
8002296c:	e51b3010 	ldr	r3, [fp, #-16]
80022970:	e593300c 	ldr	r3, [r3, #12]
80022974:	e1a00003 	mov	r0, r3
80022978:	e51b1014 	ldr	r1, [fp, #-20]	; 0xffffffec
8002297c:	e51b2018 	ldr	r2, [fp, #-24]	; 0xffffffe8
80022980:	eb00098f 	bl	80024fc4 <piperead>
80022984:	e1a03000 	mov	r3, r0
80022988:	ea000022 	b	80022a18 <fileread+0xec>
    }

    if (f->type == FD_INODE) {
8002298c:	e51b3010 	ldr	r3, [fp, #-16]
80022990:	e5d33000 	ldrb	r3, [r3]
80022994:	e3530002 	cmp	r3, #2
80022998:	1a00001b 	bne	80022a0c <fileread+0xe0>
        ilock(f->ip);
8002299c:	e51b3010 	ldr	r3, [fp, #-16]
800229a0:	e5933010 	ldr	r3, [r3, #16]
800229a4:	e1a00003 	mov	r0, r3
800229a8:	eb000264 	bl	80023340 <ilock>

        if ((r = readi(f->ip, addr, f->off, n)) > 0) {
800229ac:	e51b3010 	ldr	r3, [fp, #-16]
800229b0:	e5931010 	ldr	r1, [r3, #16]
800229b4:	e51b3010 	ldr	r3, [fp, #-16]
800229b8:	e5932014 	ldr	r2, [r3, #20]
800229bc:	e51b3018 	ldr	r3, [fp, #-24]	; 0xffffffe8
800229c0:	e1a00001 	mov	r0, r1
800229c4:	e51b1014 	ldr	r1, [fp, #-20]	; 0xffffffec
800229c8:	eb00041c 	bl	80023a40 <readi>
800229cc:	e50b0008 	str	r0, [fp, #-8]
800229d0:	e51b3008 	ldr	r3, [fp, #-8]
800229d4:	e3530000 	cmp	r3, #0
800229d8:	da000005 	ble	800229f4 <fileread+0xc8>
            f->off += r;
800229dc:	e51b3010 	ldr	r3, [fp, #-16]
800229e0:	e5932014 	ldr	r2, [r3, #20]
800229e4:	e51b3008 	ldr	r3, [fp, #-8]
800229e8:	e0822003 	add	r2, r2, r3
800229ec:	e51b3010 	ldr	r3, [fp, #-16]
800229f0:	e5832014 	str	r2, [r3, #20]
        }

        iunlock(f->ip);
800229f4:	e51b3010 	ldr	r3, [fp, #-16]
800229f8:	e5933010 	ldr	r3, [r3, #16]
800229fc:	e1a00003 	mov	r0, r3
80022a00:	eb0002b5 	bl	800234dc <iunlock>

        return r;
80022a04:	e51b3008 	ldr	r3, [fp, #-8]
80022a08:	ea000002 	b	80022a18 <fileread+0xec>
    }

    panic("fileread");
80022a0c:	e3090cf8 	movw	r0, #40184	; 0x9cf8
80022a10:	e3480002 	movt	r0, #32770	; 0x8002
80022a14:	ebfffc68 	bl	80021bbc <panic>
}
80022a18:	e1a00003 	mov	r0, r3
80022a1c:	e24bd004 	sub	sp, fp, #4
80022a20:	e8bd8800 	pop	{fp, pc}

80022a24 <filewrite>:

//PAGEBREAK!
// Write to file f.
int filewrite (struct file *f, char *addr, int n)
{
80022a24:	e92d4800 	push	{fp, lr}
80022a28:	e28db004 	add	fp, sp, #4
80022a2c:	e24dd020 	sub	sp, sp, #32
80022a30:	e50b0018 	str	r0, [fp, #-24]	; 0xffffffe8
80022a34:	e50b101c 	str	r1, [fp, #-28]	; 0xffffffe4
80022a38:	e50b2020 	str	r2, [fp, #-32]	; 0xffffffe0
    int r;
    int i;
    int max;
    int n1;

    if (f->writable == 0) {
80022a3c:	e51b3018 	ldr	r3, [fp, #-24]	; 0xffffffe8
80022a40:	e5d33009 	ldrb	r3, [r3, #9]
80022a44:	e3530000 	cmp	r3, #0
80022a48:	1a000001 	bne	80022a54 <filewrite+0x30>
        return -1;
80022a4c:	e3e03000 	mvn	r3, #0
80022a50:	ea00005a 	b	80022bc0 <filewrite+0x19c>
    }

    if (f->type == FD_PIPE) {
80022a54:	e51b3018 	ldr	r3, [fp, #-24]	; 0xffffffe8
80022a58:	e5d33000 	ldrb	r3, [r3]
80022a5c:	e3530001 	cmp	r3, #1
80022a60:	1a000007 	bne	80022a84 <filewrite+0x60>
        return pipewrite(f->pipe, addr, n);
80022a64:	e51b3018 	ldr	r3, [fp, #-24]	; 0xffffffe8
80022a68:	e593300c 	ldr	r3, [r3, #12]
80022a6c:	e1a00003 	mov	r0, r3
80022a70:	e51b101c 	ldr	r1, [fp, #-28]	; 0xffffffe4
80022a74:	e51b2020 	ldr	r2, [fp, #-32]	; 0xffffffe0
80022a78:	eb000906 	bl	80024e98 <pipewrite>
80022a7c:	e1a03000 	mov	r3, r0
80022a80:	ea00004e 	b	80022bc0 <filewrite+0x19c>
    }

    if (f->type == FD_INODE) {
80022a84:	e51b3018 	ldr	r3, [fp, #-24]	; 0xffffffe8
80022a88:	e5d33000 	ldrb	r3, [r3]
80022a8c:	e3530002 	cmp	r3, #2
80022a90:	1a000047 	bne	80022bb4 <filewrite+0x190>
        // the maximum log transaction size, including
        // i-node, indirect block, allocation blocks,
        // and 2 blocks of slop for non-aligned writes.
        // this really belongs lower down, since writei()
        // might be writing a device like the console.
        max = ((LOGSIZE - 1 - 1 - 2) / 2) * 512;
80022a94:	e3a03c06 	mov	r3, #1536	; 0x600
80022a98:	e50b3010 	str	r3, [fp, #-16]
        i = 0;
80022a9c:	e3a03000 	mov	r3, #0
80022aa0:	e50b3008 	str	r3, [fp, #-8]

        while (i < n) {
80022aa4:	ea000034 	b	80022b7c <filewrite+0x158>
            n1 = n - i;
80022aa8:	e51b2020 	ldr	r2, [fp, #-32]	; 0xffffffe0
80022aac:	e51b3008 	ldr	r3, [fp, #-8]
80022ab0:	e0633002 	rsb	r3, r3, r2
80022ab4:	e50b300c 	str	r3, [fp, #-12]

            if (n1 > max) {
80022ab8:	e51b200c 	ldr	r2, [fp, #-12]
80022abc:	e51b3010 	ldr	r3, [fp, #-16]
80022ac0:	e1520003 	cmp	r2, r3
80022ac4:	da000001 	ble	80022ad0 <filewrite+0xac>
                n1 = max;
80022ac8:	e51b3010 	ldr	r3, [fp, #-16]
80022acc:	e50b300c 	str	r3, [fp, #-12]
            }

            begin_trans();
80022ad0:	eb00070a 	bl	80024700 <begin_trans>
            ilock(f->ip);
80022ad4:	e51b3018 	ldr	r3, [fp, #-24]	; 0xffffffe8
80022ad8:	e5933010 	ldr	r3, [r3, #16]
80022adc:	e1a00003 	mov	r0, r3
80022ae0:	eb000216 	bl	80023340 <ilock>

            if ((r = writei(f->ip, addr + i, f->off, n1)) > 0) {
80022ae4:	e51b3018 	ldr	r3, [fp, #-24]	; 0xffffffe8
80022ae8:	e5930010 	ldr	r0, [r3, #16]
80022aec:	e51b3008 	ldr	r3, [fp, #-8]
80022af0:	e51b201c 	ldr	r2, [fp, #-28]	; 0xffffffe4
80022af4:	e0821003 	add	r1, r2, r3
80022af8:	e51b3018 	ldr	r3, [fp, #-24]	; 0xffffffe8
80022afc:	e5932014 	ldr	r2, [r3, #20]
80022b00:	e51b300c 	ldr	r3, [fp, #-12]
80022b04:	eb00044b 	bl	80023c38 <writei>
80022b08:	e50b0014 	str	r0, [fp, #-20]	; 0xffffffec
80022b0c:	e51b3014 	ldr	r3, [fp, #-20]	; 0xffffffec
80022b10:	e3530000 	cmp	r3, #0
80022b14:	da000005 	ble	80022b30 <filewrite+0x10c>
                f->off += r;
80022b18:	e51b3018 	ldr	r3, [fp, #-24]	; 0xffffffe8
80022b1c:	e5932014 	ldr	r2, [r3, #20]
80022b20:	e51b3014 	ldr	r3, [fp, #-20]	; 0xffffffec
80022b24:	e0822003 	add	r2, r2, r3
80022b28:	e51b3018 	ldr	r3, [fp, #-24]	; 0xffffffe8
80022b2c:	e5832014 	str	r2, [r3, #20]
            }

            iunlock(f->ip);
80022b30:	e51b3018 	ldr	r3, [fp, #-24]	; 0xffffffe8
80022b34:	e5933010 	ldr	r3, [r3, #16]
80022b38:	e1a00003 	mov	r0, r3
80022b3c:	eb000266 	bl	800234dc <iunlock>
            commit_trans();
80022b40:	eb000706 	bl	80024760 <commit_trans>

            if (r < 0) {
80022b44:	e51b3014 	ldr	r3, [fp, #-20]	; 0xffffffec
80022b48:	e3530000 	cmp	r3, #0
80022b4c:	ba00000f 	blt	80022b90 <filewrite+0x16c>
                break;
            }

            if (r != n1) {
80022b50:	e51b2014 	ldr	r2, [fp, #-20]	; 0xffffffec
80022b54:	e51b300c 	ldr	r3, [fp, #-12]
80022b58:	e1520003 	cmp	r2, r3
80022b5c:	0a000002 	beq	80022b6c <filewrite+0x148>
                panic("short filewrite");
80022b60:	e3090d04 	movw	r0, #40196	; 0x9d04
80022b64:	e3480002 	movt	r0, #32770	; 0x8002
80022b68:	ebfffc13 	bl	80021bbc <panic>
            }

            i += r;
80022b6c:	e51b2008 	ldr	r2, [fp, #-8]
80022b70:	e51b3014 	ldr	r3, [fp, #-20]	; 0xffffffec
80022b74:	e0823003 	add	r3, r2, r3
80022b78:	e50b3008 	str	r3, [fp, #-8]
        // this really belongs lower down, since writei()
        // might be writing a device like the console.
        max = ((LOGSIZE - 1 - 1 - 2) / 2) * 512;
        i = 0;

        while (i < n) {
80022b7c:	e51b2008 	ldr	r2, [fp, #-8]
80022b80:	e51b3020 	ldr	r3, [fp, #-32]	; 0xffffffe0
80022b84:	e1520003 	cmp	r2, r3
80022b88:	baffffc6 	blt	80022aa8 <filewrite+0x84>
80022b8c:	ea000000 	b	80022b94 <filewrite+0x170>

            iunlock(f->ip);
            commit_trans();

            if (r < 0) {
                break;
80022b90:	e1a00000 	nop			; (mov r0, r0)
            }

            i += r;
        }

        return i == n ? n : -1;
80022b94:	e51b2008 	ldr	r2, [fp, #-8]
80022b98:	e51b3020 	ldr	r3, [fp, #-32]	; 0xffffffe0
80022b9c:	e1520003 	cmp	r2, r3
80022ba0:	1a000001 	bne	80022bac <filewrite+0x188>
80022ba4:	e51b3020 	ldr	r3, [fp, #-32]	; 0xffffffe0
80022ba8:	ea000000 	b	80022bb0 <filewrite+0x18c>
80022bac:	e3e03000 	mvn	r3, #0
80022bb0:	ea000002 	b	80022bc0 <filewrite+0x19c>
    }

    panic("filewrite");
80022bb4:	e3090d14 	movw	r0, #40212	; 0x9d14
80022bb8:	e3480002 	movt	r0, #32770	; 0x8002
80022bbc:	ebfffbfe 	bl	80021bbc <panic>
}
80022bc0:	e1a00003 	mov	r0, r3
80022bc4:	e24bd004 	sub	sp, fp, #4
80022bc8:	e8bd8800 	pop	{fp, pc}

80022bcc <readsb>:
#define min(a, b) ((a) < (b) ? (a) : (b))
static void itrunc (struct inode*);

// Read the super block.
void readsb (int dev, struct superblock *sb)
{
80022bcc:	e92d4800 	push	{fp, lr}
80022bd0:	e28db004 	add	fp, sp, #4
80022bd4:	e24dd010 	sub	sp, sp, #16
80022bd8:	e50b0010 	str	r0, [fp, #-16]
80022bdc:	e50b1014 	str	r1, [fp, #-20]	; 0xffffffec
    struct buf *bp;

    bp = bread(dev, 1);
80022be0:	e51b3010 	ldr	r3, [fp, #-16]
80022be4:	e1a00003 	mov	r0, r3
80022be8:	e3a01001 	mov	r1, #1
80022bec:	ebfff7fe 	bl	80020bec <bread>
80022bf0:	e50b0008 	str	r0, [fp, #-8]
    memmove(sb, bp->data, sizeof(*sb));
80022bf4:	e51b3008 	ldr	r3, [fp, #-8]
80022bf8:	e2833018 	add	r3, r3, #24
80022bfc:	e51b0014 	ldr	r0, [fp, #-20]	; 0xffffffec
80022c00:	e1a01003 	mov	r1, r3
80022c04:	e3a02010 	mov	r2, #16
80022c08:	ebfff572 	bl	800201d8 <memmove>
    brelse(bp);
80022c0c:	e51b0008 	ldr	r0, [fp, #-8]
80022c10:	ebfff81e 	bl	80020c90 <brelse>
}
80022c14:	e24bd004 	sub	sp, fp, #4
80022c18:	e8bd8800 	pop	{fp, pc}

80022c1c <bzero>:

// Zero a block.
static void bzero (int dev, int bno)
{
80022c1c:	e92d4800 	push	{fp, lr}
80022c20:	e28db004 	add	fp, sp, #4
80022c24:	e24dd010 	sub	sp, sp, #16
80022c28:	e50b0010 	str	r0, [fp, #-16]
80022c2c:	e50b1014 	str	r1, [fp, #-20]	; 0xffffffec
    struct buf *bp;

    bp = bread(dev, bno);
80022c30:	e51b2010 	ldr	r2, [fp, #-16]
80022c34:	e51b3014 	ldr	r3, [fp, #-20]	; 0xffffffec
80022c38:	e1a00002 	mov	r0, r2
80022c3c:	e1a01003 	mov	r1, r3
80022c40:	ebfff7e9 	bl	80020bec <bread>
80022c44:	e50b0008 	str	r0, [fp, #-8]
    memset(bp->data, 0, BSIZE);
80022c48:	e51b3008 	ldr	r3, [fp, #-8]
80022c4c:	e2833018 	add	r3, r3, #24
80022c50:	e1a00003 	mov	r0, r3
80022c54:	e3a01000 	mov	r1, #0
80022c58:	e3a02c02 	mov	r2, #512	; 0x200
80022c5c:	ebfff4e7 	bl	80020000 <memset>
    log_write(bp);
80022c60:	e51b0008 	ldr	r0, [fp, #-8]
80022c64:	eb0006d9 	bl	800247d0 <log_write>
    brelse(bp);
80022c68:	e51b0008 	ldr	r0, [fp, #-8]
80022c6c:	ebfff807 	bl	80020c90 <brelse>
}
80022c70:	e24bd004 	sub	sp, fp, #4
80022c74:	e8bd8800 	pop	{fp, pc}

80022c78 <balloc>:

// Blocks.

// Allocate a zeroed disk block.
static uint balloc (uint dev)
{
80022c78:	e92d4800 	push	{fp, lr}
80022c7c:	e28db004 	add	fp, sp, #4
80022c80:	e24dd028 	sub	sp, sp, #40	; 0x28
80022c84:	e50b0028 	str	r0, [fp, #-40]	; 0xffffffd8
    int b, bi, m;
    struct buf *bp;
    struct superblock sb;

    bp = 0;
80022c88:	e3a03000 	mov	r3, #0
80022c8c:	e50b3010 	str	r3, [fp, #-16]
    readsb(dev, &sb);
80022c90:	e51b3028 	ldr	r3, [fp, #-40]	; 0xffffffd8
80022c94:	e1a00003 	mov	r0, r3
80022c98:	e24b3024 	sub	r3, fp, #36	; 0x24
80022c9c:	e1a01003 	mov	r1, r3
80022ca0:	ebffffc9 	bl	80022bcc <readsb>

    for (b = 0; b < sb.size; b += BPB) {
80022ca4:	e3a03000 	mov	r3, #0
80022ca8:	e50b3008 	str	r3, [fp, #-8]
80022cac:	ea000065 	b	80022e48 <balloc+0x1d0>
        bp = bread(dev, BBLOCK(b, sb.ninodes));
80022cb0:	e51b3008 	ldr	r3, [fp, #-8]
80022cb4:	e2832eff 	add	r2, r3, #4080	; 0xff0
80022cb8:	e282200f 	add	r2, r2, #15
80022cbc:	e3530000 	cmp	r3, #0
80022cc0:	b1a03002 	movlt	r3, r2
80022cc4:	e1a03643 	asr	r3, r3, #12
80022cc8:	e1a02003 	mov	r2, r3
80022ccc:	e51b301c 	ldr	r3, [fp, #-28]	; 0xffffffe4
80022cd0:	e1a031a3 	lsr	r3, r3, #3
80022cd4:	e0823003 	add	r3, r2, r3
80022cd8:	e2833003 	add	r3, r3, #3
80022cdc:	e51b0028 	ldr	r0, [fp, #-40]	; 0xffffffd8
80022ce0:	e1a01003 	mov	r1, r3
80022ce4:	ebfff7c0 	bl	80020bec <bread>
80022ce8:	e50b0010 	str	r0, [fp, #-16]

        for (bi = 0; bi < BPB && b + bi < sb.size; bi++) {
80022cec:	e3a03000 	mov	r3, #0
80022cf0:	e50b300c 	str	r3, [fp, #-12]
80022cf4:	ea000043 	b	80022e08 <balloc+0x190>
            m = 1 << (bi % 8);
80022cf8:	e51b200c 	ldr	r2, [fp, #-12]
80022cfc:	e1a03fc2 	asr	r3, r2, #31
80022d00:	e1a03ea3 	lsr	r3, r3, #29
80022d04:	e0822003 	add	r2, r2, r3
80022d08:	e2022007 	and	r2, r2, #7
80022d0c:	e0633002 	rsb	r3, r3, r2
80022d10:	e3a02001 	mov	r2, #1
80022d14:	e1a03312 	lsl	r3, r2, r3
80022d18:	e50b3014 	str	r3, [fp, #-20]	; 0xffffffec

            if ((bp->data[bi / 8] & m) == 0) {  // Is block free?
80022d1c:	e51b300c 	ldr	r3, [fp, #-12]
80022d20:	e2832007 	add	r2, r3, #7
80022d24:	e3530000 	cmp	r3, #0
80022d28:	b1a03002 	movlt	r3, r2
80022d2c:	e1a031c3 	asr	r3, r3, #3
80022d30:	e51b2010 	ldr	r2, [fp, #-16]
80022d34:	e3a01018 	mov	r1, #24
80022d38:	e0822003 	add	r2, r2, r3
80022d3c:	e1a03001 	mov	r3, r1
80022d40:	e0823003 	add	r3, r2, r3
80022d44:	e5d33000 	ldrb	r3, [r3]
80022d48:	e1a02003 	mov	r2, r3
80022d4c:	e51b3014 	ldr	r3, [fp, #-20]	; 0xffffffec
80022d50:	e0023003 	and	r3, r2, r3
80022d54:	e3530000 	cmp	r3, #0
80022d58:	1a000027 	bne	80022dfc <balloc+0x184>
                bp->data[bi / 8] |= m;  // Mark block in use.
80022d5c:	e51b300c 	ldr	r3, [fp, #-12]
80022d60:	e2832007 	add	r2, r3, #7
80022d64:	e3530000 	cmp	r3, #0
80022d68:	b1a03002 	movlt	r3, r2
80022d6c:	e1a031c3 	asr	r3, r3, #3
80022d70:	e51b2010 	ldr	r2, [fp, #-16]
80022d74:	e3a00018 	mov	r0, #24
80022d78:	e0821003 	add	r1, r2, r3
80022d7c:	e1a02000 	mov	r2, r0
80022d80:	e0812002 	add	r2, r1, r2
80022d84:	e5d22000 	ldrb	r2, [r2]
80022d88:	e6ef1072 	uxtb	r1, r2
80022d8c:	e51b2014 	ldr	r2, [fp, #-20]	; 0xffffffec
80022d90:	e6ef2072 	uxtb	r2, r2
80022d94:	e1812002 	orr	r2, r1, r2
80022d98:	e6ef2072 	uxtb	r2, r2
80022d9c:	e6ef2072 	uxtb	r2, r2
80022da0:	e51b1010 	ldr	r1, [fp, #-16]
80022da4:	e3a00018 	mov	r0, #24
80022da8:	e0811003 	add	r1, r1, r3
80022dac:	e1a03000 	mov	r3, r0
80022db0:	e0813003 	add	r3, r1, r3
80022db4:	e5c32000 	strb	r2, [r3]
                log_write(bp);
80022db8:	e51b0010 	ldr	r0, [fp, #-16]
80022dbc:	eb000683 	bl	800247d0 <log_write>
                brelse(bp);
80022dc0:	e51b0010 	ldr	r0, [fp, #-16]
80022dc4:	ebfff7b1 	bl	80020c90 <brelse>
                bzero(dev, b + bi);
80022dc8:	e51b2028 	ldr	r2, [fp, #-40]	; 0xffffffd8
80022dcc:	e51b1008 	ldr	r1, [fp, #-8]
80022dd0:	e51b300c 	ldr	r3, [fp, #-12]
80022dd4:	e0813003 	add	r3, r1, r3
80022dd8:	e1a00002 	mov	r0, r2
80022ddc:	e1a01003 	mov	r1, r3
80022de0:	ebffff8d 	bl	80022c1c <bzero>
                return b + bi;
80022de4:	e51b2008 	ldr	r2, [fp, #-8]
80022de8:	e51b300c 	ldr	r3, [fp, #-12]
80022dec:	e0823003 	add	r3, r2, r3

        brelse(bp);
    }

    panic("balloc: out of blocks");
}
80022df0:	e1a00003 	mov	r0, r3
80022df4:	e24bd004 	sub	sp, fp, #4
80022df8:	e8bd8800 	pop	{fp, pc}
    readsb(dev, &sb);

    for (b = 0; b < sb.size; b += BPB) {
        bp = bread(dev, BBLOCK(b, sb.ninodes));

        for (bi = 0; bi < BPB && b + bi < sb.size; bi++) {
80022dfc:	e51b300c 	ldr	r3, [fp, #-12]
80022e00:	e2833001 	add	r3, r3, #1
80022e04:	e50b300c 	str	r3, [fp, #-12]
80022e08:	e51b200c 	ldr	r2, [fp, #-12]
80022e0c:	e3003fff 	movw	r3, #4095	; 0xfff
80022e10:	e1520003 	cmp	r2, r3
80022e14:	ca000006 	bgt	80022e34 <balloc+0x1bc>
80022e18:	e51b2008 	ldr	r2, [fp, #-8]
80022e1c:	e51b300c 	ldr	r3, [fp, #-12]
80022e20:	e0823003 	add	r3, r2, r3
80022e24:	e1a02003 	mov	r2, r3
80022e28:	e51b3024 	ldr	r3, [fp, #-36]	; 0xffffffdc
80022e2c:	e1520003 	cmp	r2, r3
80022e30:	3affffb0 	bcc	80022cf8 <balloc+0x80>
                bzero(dev, b + bi);
                return b + bi;
            }
        }

        brelse(bp);
80022e34:	e51b0010 	ldr	r0, [fp, #-16]
80022e38:	ebfff794 	bl	80020c90 <brelse>
    struct superblock sb;

    bp = 0;
    readsb(dev, &sb);

    for (b = 0; b < sb.size; b += BPB) {
80022e3c:	e51b3008 	ldr	r3, [fp, #-8]
80022e40:	e2833a01 	add	r3, r3, #4096	; 0x1000
80022e44:	e50b3008 	str	r3, [fp, #-8]
80022e48:	e51b2008 	ldr	r2, [fp, #-8]
80022e4c:	e51b3024 	ldr	r3, [fp, #-36]	; 0xffffffdc
80022e50:	e1520003 	cmp	r2, r3
80022e54:	3affff95 	bcc	80022cb0 <balloc+0x38>
        }

        brelse(bp);
    }

    panic("balloc: out of blocks");
80022e58:	e3090d20 	movw	r0, #40224	; 0x9d20
80022e5c:	e3480002 	movt	r0, #32770	; 0x8002
80022e60:	ebfffb55 	bl	80021bbc <panic>

80022e64 <bfree>:
}

// Free a disk block.
static void bfree (int dev, uint b)
{
80022e64:	e92d4800 	push	{fp, lr}
80022e68:	e28db004 	add	fp, sp, #4
80022e6c:	e24dd028 	sub	sp, sp, #40	; 0x28
80022e70:	e50b0028 	str	r0, [fp, #-40]	; 0xffffffd8
80022e74:	e50b102c 	str	r1, [fp, #-44]	; 0xffffffd4
    struct buf *bp;
    struct superblock sb;
    int bi, m;

    readsb(dev, &sb);
80022e78:	e51b0028 	ldr	r0, [fp, #-40]	; 0xffffffd8
80022e7c:	e24b3020 	sub	r3, fp, #32
80022e80:	e1a01003 	mov	r1, r3
80022e84:	ebffff50 	bl	80022bcc <readsb>
    bp = bread(dev, BBLOCK(b, sb.ninodes));
80022e88:	e51b2028 	ldr	r2, [fp, #-40]	; 0xffffffd8
80022e8c:	e51b302c 	ldr	r3, [fp, #-44]	; 0xffffffd4
80022e90:	e1a01623 	lsr	r1, r3, #12
80022e94:	e51b3018 	ldr	r3, [fp, #-24]	; 0xffffffe8
80022e98:	e1a031a3 	lsr	r3, r3, #3
80022e9c:	e0813003 	add	r3, r1, r3
80022ea0:	e2833003 	add	r3, r3, #3
80022ea4:	e1a00002 	mov	r0, r2
80022ea8:	e1a01003 	mov	r1, r3
80022eac:	ebfff74e 	bl	80020bec <bread>
80022eb0:	e50b0008 	str	r0, [fp, #-8]
    bi = b % BPB;
80022eb4:	e51b302c 	ldr	r3, [fp, #-44]	; 0xffffffd4
80022eb8:	e1a03a03 	lsl	r3, r3, #20
80022ebc:	e1a03a23 	lsr	r3, r3, #20
80022ec0:	e50b300c 	str	r3, [fp, #-12]
    m = 1 << (bi % 8);
80022ec4:	e51b200c 	ldr	r2, [fp, #-12]
80022ec8:	e1a03fc2 	asr	r3, r2, #31
80022ecc:	e1a03ea3 	lsr	r3, r3, #29
80022ed0:	e0822003 	add	r2, r2, r3
80022ed4:	e2022007 	and	r2, r2, #7
80022ed8:	e0633002 	rsb	r3, r3, r2
80022edc:	e3a02001 	mov	r2, #1
80022ee0:	e1a03312 	lsl	r3, r2, r3
80022ee4:	e50b3010 	str	r3, [fp, #-16]

    if ((bp->data[bi / 8] & m) == 0) {
80022ee8:	e51b300c 	ldr	r3, [fp, #-12]
80022eec:	e2832007 	add	r2, r3, #7
80022ef0:	e3530000 	cmp	r3, #0
80022ef4:	b1a03002 	movlt	r3, r2
80022ef8:	e1a031c3 	asr	r3, r3, #3
80022efc:	e51b2008 	ldr	r2, [fp, #-8]
80022f00:	e3a01018 	mov	r1, #24
80022f04:	e0822003 	add	r2, r2, r3
80022f08:	e1a03001 	mov	r3, r1
80022f0c:	e0823003 	add	r3, r2, r3
80022f10:	e5d33000 	ldrb	r3, [r3]
80022f14:	e1a02003 	mov	r2, r3
80022f18:	e51b3010 	ldr	r3, [fp, #-16]
80022f1c:	e0023003 	and	r3, r2, r3
80022f20:	e3530000 	cmp	r3, #0
80022f24:	1a000002 	bne	80022f34 <bfree+0xd0>
        panic("freeing free block");
80022f28:	e3090d38 	movw	r0, #40248	; 0x9d38
80022f2c:	e3480002 	movt	r0, #32770	; 0x8002
80022f30:	ebfffb21 	bl	80021bbc <panic>
    }

    bp->data[bi / 8] &= ~m;
80022f34:	e51b300c 	ldr	r3, [fp, #-12]
80022f38:	e2832007 	add	r2, r3, #7
80022f3c:	e3530000 	cmp	r3, #0
80022f40:	b1a03002 	movlt	r3, r2
80022f44:	e1a031c3 	asr	r3, r3, #3
80022f48:	e51b2008 	ldr	r2, [fp, #-8]
80022f4c:	e3a00018 	mov	r0, #24
80022f50:	e0821003 	add	r1, r2, r3
80022f54:	e1a02000 	mov	r2, r0
80022f58:	e0812002 	add	r2, r1, r2
80022f5c:	e5d22000 	ldrb	r2, [r2]
80022f60:	e6ef1072 	uxtb	r1, r2
80022f64:	e51b2010 	ldr	r2, [fp, #-16]
80022f68:	e6ef2072 	uxtb	r2, r2
80022f6c:	e1e02002 	mvn	r2, r2
80022f70:	e6ef2072 	uxtb	r2, r2
80022f74:	e0012002 	and	r2, r1, r2
80022f78:	e6ef2072 	uxtb	r2, r2
80022f7c:	e6ef2072 	uxtb	r2, r2
80022f80:	e51b1008 	ldr	r1, [fp, #-8]
80022f84:	e3a00018 	mov	r0, #24
80022f88:	e0811003 	add	r1, r1, r3
80022f8c:	e1a03000 	mov	r3, r0
80022f90:	e0813003 	add	r3, r1, r3
80022f94:	e5c32000 	strb	r2, [r3]
    log_write(bp);
80022f98:	e51b0008 	ldr	r0, [fp, #-8]
80022f9c:	eb00060b 	bl	800247d0 <log_write>
    brelse(bp);
80022fa0:	e51b0008 	ldr	r0, [fp, #-8]
80022fa4:	ebfff739 	bl	80020c90 <brelse>
}
80022fa8:	e24bd004 	sub	sp, fp, #4
80022fac:	e8bd8800 	pop	{fp, pc}

80022fb0 <iinit>:
    struct spinlock lock;
    struct inode inode[NINODE];
} icache;

void iinit (void)
{
80022fb0:	e92d4800 	push	{fp, lr}
80022fb4:	e28db004 	add	fp, sp, #4
    initlock(&icache.lock, "icache");
80022fb8:	e30d04d8 	movw	r0, #54488	; 0xd4d8
80022fbc:	e348000a 	movt	r0, #32778	; 0x800a
80022fc0:	e3091d4c 	movw	r1, #40268	; 0x9d4c
80022fc4:	e3481002 	movt	r1, #32770	; 0x8002
80022fc8:	eb000c1e 	bl	80026048 <initlock>
}
80022fcc:	e8bd8800 	pop	{fp, pc}

80022fd0 <ialloc>:

//PAGEBREAK!
// Allocate a new inode with the given type on device dev.
// A free inode has a type of zero.
struct inode* ialloc (uint dev, short type)
{
80022fd0:	e92d4800 	push	{fp, lr}
80022fd4:	e28db004 	add	fp, sp, #4
80022fd8:	e24dd028 	sub	sp, sp, #40	; 0x28
80022fdc:	e50b0028 	str	r0, [fp, #-40]	; 0xffffffd8
80022fe0:	e1a03001 	mov	r3, r1
80022fe4:	e14b32ba 	strh	r3, [fp, #-42]	; 0xffffffd6
    int inum;
    struct buf *bp;
    struct dinode *dip;
    struct superblock sb;

    readsb(dev, &sb);
80022fe8:	e51b3028 	ldr	r3, [fp, #-40]	; 0xffffffd8
80022fec:	e1a00003 	mov	r0, r3
80022ff0:	e24b3020 	sub	r3, fp, #32
80022ff4:	e1a01003 	mov	r1, r3
80022ff8:	ebfffef3 	bl	80022bcc <readsb>

    for (inum = 1; inum < sb.ninodes; inum++) {
80022ffc:	e3a03001 	mov	r3, #1
80023000:	e50b3008 	str	r3, [fp, #-8]
80023004:	ea000029 	b	800230b0 <ialloc+0xe0>
        bp = bread(dev, IBLOCK(inum));
80023008:	e51b3008 	ldr	r3, [fp, #-8]
8002300c:	e1a031a3 	lsr	r3, r3, #3
80023010:	e2833002 	add	r3, r3, #2
80023014:	e51b0028 	ldr	r0, [fp, #-40]	; 0xffffffd8
80023018:	e1a01003 	mov	r1, r3
8002301c:	ebfff6f2 	bl	80020bec <bread>
80023020:	e50b000c 	str	r0, [fp, #-12]
        dip = (struct dinode*) bp->data + inum % IPB;
80023024:	e51b300c 	ldr	r3, [fp, #-12]
80023028:	e2832018 	add	r2, r3, #24
8002302c:	e51b3008 	ldr	r3, [fp, #-8]
80023030:	e2033007 	and	r3, r3, #7
80023034:	e1a03303 	lsl	r3, r3, #6
80023038:	e0823003 	add	r3, r2, r3
8002303c:	e50b3010 	str	r3, [fp, #-16]

        if (dip->type == 0) {  // a free inode
80023040:	e51b3010 	ldr	r3, [fp, #-16]
80023044:	e1d330b0 	ldrh	r3, [r3]
80023048:	e3530000 	cmp	r3, #0
8002304c:	1a000012 	bne	8002309c <ialloc+0xcc>
            memset(dip, 0, sizeof(*dip));
80023050:	e51b0010 	ldr	r0, [fp, #-16]
80023054:	e3a01000 	mov	r1, #0
80023058:	e3a02040 	mov	r2, #64	; 0x40
8002305c:	ebfff3e7 	bl	80020000 <memset>
            dip->type = type;
80023060:	e51b3010 	ldr	r3, [fp, #-16]
80023064:	e15b22ba 	ldrh	r2, [fp, #-42]	; 0xffffffd6
80023068:	e1c320b0 	strh	r2, [r3]
            log_write(bp);   // mark it allocated on the disk
8002306c:	e51b000c 	ldr	r0, [fp, #-12]
80023070:	eb0005d6 	bl	800247d0 <log_write>
            brelse(bp);
80023074:	e51b000c 	ldr	r0, [fp, #-12]
80023078:	ebfff704 	bl	80020c90 <brelse>
            return iget(dev, inum);
8002307c:	e51b3008 	ldr	r3, [fp, #-8]
80023080:	e51b0028 	ldr	r0, [fp, #-40]	; 0xffffffd8
80023084:	e1a01003 	mov	r1, r3
80023088:	eb000047 	bl	800231ac <iget>
8002308c:	e1a03000 	mov	r3, r0

        brelse(bp);
    }

    panic("ialloc: no inodes");
}
80023090:	e1a00003 	mov	r0, r3
80023094:	e24bd004 	sub	sp, fp, #4
80023098:	e8bd8800 	pop	{fp, pc}
            log_write(bp);   // mark it allocated on the disk
            brelse(bp);
            return iget(dev, inum);
        }

        brelse(bp);
8002309c:	e51b000c 	ldr	r0, [fp, #-12]
800230a0:	ebfff6fa 	bl	80020c90 <brelse>
    struct dinode *dip;
    struct superblock sb;

    readsb(dev, &sb);

    for (inum = 1; inum < sb.ninodes; inum++) {
800230a4:	e51b3008 	ldr	r3, [fp, #-8]
800230a8:	e2833001 	add	r3, r3, #1
800230ac:	e50b3008 	str	r3, [fp, #-8]
800230b0:	e51b2008 	ldr	r2, [fp, #-8]
800230b4:	e51b3018 	ldr	r3, [fp, #-24]	; 0xffffffe8
800230b8:	e1520003 	cmp	r2, r3
800230bc:	3affffd1 	bcc	80023008 <ialloc+0x38>
        }

        brelse(bp);
    }

    panic("ialloc: no inodes");
800230c0:	e3090d54 	movw	r0, #40276	; 0x9d54
800230c4:	e3480002 	movt	r0, #32770	; 0x8002
800230c8:	ebfffabb 	bl	80021bbc <panic>

800230cc <iupdate>:
}

// Copy a modified in-memory inode to disk.
void iupdate (struct inode *ip)
{
800230cc:	e92d4800 	push	{fp, lr}
800230d0:	e28db004 	add	fp, sp, #4
800230d4:	e24dd010 	sub	sp, sp, #16
800230d8:	e50b0010 	str	r0, [fp, #-16]
    struct buf *bp;
    struct dinode *dip;

    bp = bread(ip->dev, IBLOCK(ip->inum));
800230dc:	e51b3010 	ldr	r3, [fp, #-16]
800230e0:	e5932000 	ldr	r2, [r3]
800230e4:	e51b3010 	ldr	r3, [fp, #-16]
800230e8:	e5933004 	ldr	r3, [r3, #4]
800230ec:	e1a031a3 	lsr	r3, r3, #3
800230f0:	e2833002 	add	r3, r3, #2
800230f4:	e1a00002 	mov	r0, r2
800230f8:	e1a01003 	mov	r1, r3
800230fc:	ebfff6ba 	bl	80020bec <bread>
80023100:	e50b0008 	str	r0, [fp, #-8]

    dip = (struct dinode*) bp->data + ip->inum % IPB;
80023104:	e51b3008 	ldr	r3, [fp, #-8]
80023108:	e2832018 	add	r2, r3, #24
8002310c:	e51b3010 	ldr	r3, [fp, #-16]
80023110:	e5933004 	ldr	r3, [r3, #4]
80023114:	e2033007 	and	r3, r3, #7
80023118:	e1a03303 	lsl	r3, r3, #6
8002311c:	e0823003 	add	r3, r2, r3
80023120:	e50b300c 	str	r3, [fp, #-12]
    dip->type = ip->type;
80023124:	e51b3010 	ldr	r3, [fp, #-16]
80023128:	e1d321b0 	ldrh	r2, [r3, #16]
8002312c:	e51b300c 	ldr	r3, [fp, #-12]
80023130:	e1c320b0 	strh	r2, [r3]
    dip->major = ip->major;
80023134:	e51b3010 	ldr	r3, [fp, #-16]
80023138:	e1d321b2 	ldrh	r2, [r3, #18]
8002313c:	e51b300c 	ldr	r3, [fp, #-12]
80023140:	e1c320b2 	strh	r2, [r3, #2]
    dip->minor = ip->minor;
80023144:	e51b3010 	ldr	r3, [fp, #-16]
80023148:	e1d321b4 	ldrh	r2, [r3, #20]
8002314c:	e51b300c 	ldr	r3, [fp, #-12]
80023150:	e1c320b4 	strh	r2, [r3, #4]
    dip->nlink = ip->nlink;
80023154:	e51b3010 	ldr	r3, [fp, #-16]
80023158:	e1d321b6 	ldrh	r2, [r3, #22]
8002315c:	e51b300c 	ldr	r3, [fp, #-12]
80023160:	e1c320b6 	strh	r2, [r3, #6]
    dip->size = ip->size;
80023164:	e51b3010 	ldr	r3, [fp, #-16]
80023168:	e5932018 	ldr	r2, [r3, #24]
8002316c:	e51b300c 	ldr	r3, [fp, #-12]
80023170:	e5832008 	str	r2, [r3, #8]

    memmove(dip->addrs, ip->addrs, sizeof(ip->addrs));
80023174:	e51b300c 	ldr	r3, [fp, #-12]
80023178:	e283200c 	add	r2, r3, #12
8002317c:	e51b3010 	ldr	r3, [fp, #-16]
80023180:	e283301c 	add	r3, r3, #28
80023184:	e1a00002 	mov	r0, r2
80023188:	e1a01003 	mov	r1, r3
8002318c:	e3a02034 	mov	r2, #52	; 0x34
80023190:	ebfff410 	bl	800201d8 <memmove>
    log_write(bp);
80023194:	e51b0008 	ldr	r0, [fp, #-8]
80023198:	eb00058c 	bl	800247d0 <log_write>
    brelse(bp);
8002319c:	e51b0008 	ldr	r0, [fp, #-8]
800231a0:	ebfff6ba 	bl	80020c90 <brelse>
}
800231a4:	e24bd004 	sub	sp, fp, #4
800231a8:	e8bd8800 	pop	{fp, pc}

800231ac <iget>:

// Find the inode with number inum on device dev
// and return the in-memory copy. Does not lock
// the inode and does not read it from disk.
static struct inode* iget (uint dev, uint inum)
{
800231ac:	e92d4800 	push	{fp, lr}
800231b0:	e28db004 	add	fp, sp, #4
800231b4:	e24dd010 	sub	sp, sp, #16
800231b8:	e50b0010 	str	r0, [fp, #-16]
800231bc:	e50b1014 	str	r1, [fp, #-20]	; 0xffffffec
    struct inode *ip, *empty;

    acquire(&icache.lock);
800231c0:	e30d04d8 	movw	r0, #54488	; 0xd4d8
800231c4:	e348000a 	movt	r0, #32778	; 0x800a
800231c8:	eb000baf 	bl	8002608c <acquire>

    // Is the inode already cached?
    empty = 0;
800231cc:	e3a03000 	mov	r3, #0
800231d0:	e50b300c 	str	r3, [fp, #-12]

    for (ip = &icache.inode[0]; ip < &icache.inode[NINODE]; ip++) {
800231d4:	e59f3110 	ldr	r3, [pc, #272]	; 800232ec <iget+0x140>
800231d8:	e50b3008 	str	r3, [fp, #-8]
800231dc:	ea000023 	b	80023270 <iget+0xc4>
        if (ip->ref > 0 && ip->dev == dev && ip->inum == inum) {
800231e0:	e51b3008 	ldr	r3, [fp, #-8]
800231e4:	e5933008 	ldr	r3, [r3, #8]
800231e8:	e3530000 	cmp	r3, #0
800231ec:	da000013 	ble	80023240 <iget+0x94>
800231f0:	e51b3008 	ldr	r3, [fp, #-8]
800231f4:	e5932000 	ldr	r2, [r3]
800231f8:	e51b3010 	ldr	r3, [fp, #-16]
800231fc:	e1520003 	cmp	r2, r3
80023200:	1a00000e 	bne	80023240 <iget+0x94>
80023204:	e51b3008 	ldr	r3, [fp, #-8]
80023208:	e5932004 	ldr	r2, [r3, #4]
8002320c:	e51b3014 	ldr	r3, [fp, #-20]	; 0xffffffec
80023210:	e1520003 	cmp	r2, r3
80023214:	1a000009 	bne	80023240 <iget+0x94>
            ip->ref++;
80023218:	e51b3008 	ldr	r3, [fp, #-8]
8002321c:	e5933008 	ldr	r3, [r3, #8]
80023220:	e2832001 	add	r2, r3, #1
80023224:	e51b3008 	ldr	r3, [fp, #-8]
80023228:	e5832008 	str	r2, [r3, #8]
            release(&icache.lock);
8002322c:	e30d04d8 	movw	r0, #54488	; 0xd4d8
80023230:	e348000a 	movt	r0, #32778	; 0x800a
80023234:	eb000b9e 	bl	800260b4 <release>
            return ip;
80023238:	e51b3008 	ldr	r3, [fp, #-8]
8002323c:	ea000027 	b	800232e0 <iget+0x134>
        }

        if (empty == 0 && ip->ref == 0) {   // Remember empty slot.
80023240:	e51b300c 	ldr	r3, [fp, #-12]
80023244:	e3530000 	cmp	r3, #0
80023248:	1a000005 	bne	80023264 <iget+0xb8>
8002324c:	e51b3008 	ldr	r3, [fp, #-8]
80023250:	e5933008 	ldr	r3, [r3, #8]
80023254:	e3530000 	cmp	r3, #0
80023258:	1a000001 	bne	80023264 <iget+0xb8>
            empty = ip;
8002325c:	e51b3008 	ldr	r3, [fp, #-8]
80023260:	e50b300c 	str	r3, [fp, #-12]
    acquire(&icache.lock);

    // Is the inode already cached?
    empty = 0;

    for (ip = &icache.inode[0]; ip < &icache.inode[NINODE]; ip++) {
80023264:	e51b3008 	ldr	r3, [fp, #-8]
80023268:	e2833050 	add	r3, r3, #80	; 0x50
8002326c:	e50b3008 	str	r3, [fp, #-8]
80023270:	e51b2008 	ldr	r2, [fp, #-8]
80023274:	e59f3074 	ldr	r3, [pc, #116]	; 800232f0 <iget+0x144>
80023278:	e1520003 	cmp	r2, r3
8002327c:	3affffd7 	bcc	800231e0 <iget+0x34>
            empty = ip;
        }
    }

    // Recycle an inode cache entry.
    if (empty == 0) {
80023280:	e51b300c 	ldr	r3, [fp, #-12]
80023284:	e3530000 	cmp	r3, #0
80023288:	1a000002 	bne	80023298 <iget+0xec>
        panic("iget: no inodes");
8002328c:	e3090d68 	movw	r0, #40296	; 0x9d68
80023290:	e3480002 	movt	r0, #32770	; 0x8002
80023294:	ebfffa48 	bl	80021bbc <panic>
    }

    ip = empty;
80023298:	e51b300c 	ldr	r3, [fp, #-12]
8002329c:	e50b3008 	str	r3, [fp, #-8]
    ip->dev = dev;
800232a0:	e51b3008 	ldr	r3, [fp, #-8]
800232a4:	e51b2010 	ldr	r2, [fp, #-16]
800232a8:	e5832000 	str	r2, [r3]
    ip->inum = inum;
800232ac:	e51b3008 	ldr	r3, [fp, #-8]
800232b0:	e51b2014 	ldr	r2, [fp, #-20]	; 0xffffffec
800232b4:	e5832004 	str	r2, [r3, #4]
    ip->ref = 1;
800232b8:	e51b3008 	ldr	r3, [fp, #-8]
800232bc:	e3a02001 	mov	r2, #1
800232c0:	e5832008 	str	r2, [r3, #8]
    ip->flags = 0;
800232c4:	e51b3008 	ldr	r3, [fp, #-8]
800232c8:	e3a02000 	mov	r2, #0
800232cc:	e583200c 	str	r2, [r3, #12]
    release(&icache.lock);
800232d0:	e30d04d8 	movw	r0, #54488	; 0xd4d8
800232d4:	e348000a 	movt	r0, #32778	; 0x800a
800232d8:	eb000b75 	bl	800260b4 <release>

    return ip;
800232dc:	e51b3008 	ldr	r3, [fp, #-8]
}
800232e0:	e1a00003 	mov	r0, r3
800232e4:	e24bd004 	sub	sp, fp, #4
800232e8:	e8bd8800 	pop	{fp, pc}
800232ec:	800ad50c 	.word	0x800ad50c
800232f0:	800ae4ac 	.word	0x800ae4ac

800232f4 <idup>:

// Increment reference count for ip.
// Returns ip to enable ip = idup(ip1) idiom.
struct inode* idup (struct inode *ip)
{
800232f4:	e92d4800 	push	{fp, lr}
800232f8:	e28db004 	add	fp, sp, #4
800232fc:	e24dd008 	sub	sp, sp, #8
80023300:	e50b0008 	str	r0, [fp, #-8]
    acquire(&icache.lock);
80023304:	e30d04d8 	movw	r0, #54488	; 0xd4d8
80023308:	e348000a 	movt	r0, #32778	; 0x800a
8002330c:	eb000b5e 	bl	8002608c <acquire>
    ip->ref++;
80023310:	e51b3008 	ldr	r3, [fp, #-8]
80023314:	e5933008 	ldr	r3, [r3, #8]
80023318:	e2832001 	add	r2, r3, #1
8002331c:	e51b3008 	ldr	r3, [fp, #-8]
80023320:	e5832008 	str	r2, [r3, #8]
    release(&icache.lock);
80023324:	e30d04d8 	movw	r0, #54488	; 0xd4d8
80023328:	e348000a 	movt	r0, #32778	; 0x800a
8002332c:	eb000b60 	bl	800260b4 <release>
    return ip;
80023330:	e51b3008 	ldr	r3, [fp, #-8]
}
80023334:	e1a00003 	mov	r0, r3
80023338:	e24bd004 	sub	sp, fp, #4
8002333c:	e8bd8800 	pop	{fp, pc}

80023340 <ilock>:

// Lock the given inode.
// Reads the inode from disk if necessary.
void ilock (struct inode *ip)
{
80023340:	e92d4800 	push	{fp, lr}
80023344:	e28db004 	add	fp, sp, #4
80023348:	e24dd010 	sub	sp, sp, #16
8002334c:	e50b0010 	str	r0, [fp, #-16]
    struct buf *bp;
    struct dinode *dip;

    if (ip == 0 || ip->ref < 1) {
80023350:	e51b3010 	ldr	r3, [fp, #-16]
80023354:	e3530000 	cmp	r3, #0
80023358:	0a000003 	beq	8002336c <ilock+0x2c>
8002335c:	e51b3010 	ldr	r3, [fp, #-16]
80023360:	e5933008 	ldr	r3, [r3, #8]
80023364:	e3530000 	cmp	r3, #0
80023368:	ca000002 	bgt	80023378 <ilock+0x38>
        panic("ilock");
8002336c:	e3090d78 	movw	r0, #40312	; 0x9d78
80023370:	e3480002 	movt	r0, #32770	; 0x8002
80023374:	ebfffa10 	bl	80021bbc <panic>
    }

    acquire(&icache.lock);
80023378:	e30d04d8 	movw	r0, #54488	; 0xd4d8
8002337c:	e348000a 	movt	r0, #32778	; 0x800a
80023380:	eb000b41 	bl	8002608c <acquire>
    while (ip->flags & I_BUSY) {
80023384:	ea000003 	b	80023398 <ilock+0x58>
        sleep(ip, &icache.lock);
80023388:	e51b0010 	ldr	r0, [fp, #-16]
8002338c:	e30d14d8 	movw	r1, #54488	; 0xd4d8
80023390:	e348100a 	movt	r1, #32778	; 0x800a
80023394:	eb000a55 	bl	80025cf0 <sleep>
    if (ip == 0 || ip->ref < 1) {
        panic("ilock");
    }

    acquire(&icache.lock);
    while (ip->flags & I_BUSY) {
80023398:	e51b3010 	ldr	r3, [fp, #-16]
8002339c:	e593300c 	ldr	r3, [r3, #12]
800233a0:	e2033001 	and	r3, r3, #1
800233a4:	e6ef3073 	uxtb	r3, r3
800233a8:	e3530000 	cmp	r3, #0
800233ac:	1afffff5 	bne	80023388 <ilock+0x48>
        sleep(ip, &icache.lock);
    }

    ip->flags |= I_BUSY;
800233b0:	e51b3010 	ldr	r3, [fp, #-16]
800233b4:	e593300c 	ldr	r3, [r3, #12]
800233b8:	e3832001 	orr	r2, r3, #1
800233bc:	e51b3010 	ldr	r3, [fp, #-16]
800233c0:	e583200c 	str	r2, [r3, #12]
    release(&icache.lock);
800233c4:	e30d04d8 	movw	r0, #54488	; 0xd4d8
800233c8:	e348000a 	movt	r0, #32778	; 0x800a
800233cc:	eb000b38 	bl	800260b4 <release>

    if (!(ip->flags & I_VALID)) {
800233d0:	e51b3010 	ldr	r3, [fp, #-16]
800233d4:	e593300c 	ldr	r3, [r3, #12]
800233d8:	e2033002 	and	r3, r3, #2
800233dc:	e3530000 	cmp	r3, #0
800233e0:	1a00003b 	bne	800234d4 <ilock+0x194>
        bp = bread(ip->dev, IBLOCK(ip->inum));
800233e4:	e51b3010 	ldr	r3, [fp, #-16]
800233e8:	e5932000 	ldr	r2, [r3]
800233ec:	e51b3010 	ldr	r3, [fp, #-16]
800233f0:	e5933004 	ldr	r3, [r3, #4]
800233f4:	e1a031a3 	lsr	r3, r3, #3
800233f8:	e2833002 	add	r3, r3, #2
800233fc:	e1a00002 	mov	r0, r2
80023400:	e1a01003 	mov	r1, r3
80023404:	ebfff5f8 	bl	80020bec <bread>
80023408:	e50b0008 	str	r0, [fp, #-8]

        dip = (struct dinode*) bp->data + ip->inum % IPB;
8002340c:	e51b3008 	ldr	r3, [fp, #-8]
80023410:	e2832018 	add	r2, r3, #24
80023414:	e51b3010 	ldr	r3, [fp, #-16]
80023418:	e5933004 	ldr	r3, [r3, #4]
8002341c:	e2033007 	and	r3, r3, #7
80023420:	e1a03303 	lsl	r3, r3, #6
80023424:	e0823003 	add	r3, r2, r3
80023428:	e50b300c 	str	r3, [fp, #-12]
        ip->type = dip->type;
8002342c:	e51b300c 	ldr	r3, [fp, #-12]
80023430:	e1d320b0 	ldrh	r2, [r3]
80023434:	e51b3010 	ldr	r3, [fp, #-16]
80023438:	e1c321b0 	strh	r2, [r3, #16]
        ip->major = dip->major;
8002343c:	e51b300c 	ldr	r3, [fp, #-12]
80023440:	e1d320b2 	ldrh	r2, [r3, #2]
80023444:	e51b3010 	ldr	r3, [fp, #-16]
80023448:	e1c321b2 	strh	r2, [r3, #18]
        ip->minor = dip->minor;
8002344c:	e51b300c 	ldr	r3, [fp, #-12]
80023450:	e1d320b4 	ldrh	r2, [r3, #4]
80023454:	e51b3010 	ldr	r3, [fp, #-16]
80023458:	e1c321b4 	strh	r2, [r3, #20]
        ip->nlink = dip->nlink;
8002345c:	e51b300c 	ldr	r3, [fp, #-12]
80023460:	e1d320b6 	ldrh	r2, [r3, #6]
80023464:	e51b3010 	ldr	r3, [fp, #-16]
80023468:	e1c321b6 	strh	r2, [r3, #22]
        ip->size = dip->size;
8002346c:	e51b300c 	ldr	r3, [fp, #-12]
80023470:	e5932008 	ldr	r2, [r3, #8]
80023474:	e51b3010 	ldr	r3, [fp, #-16]
80023478:	e5832018 	str	r2, [r3, #24]

        memmove(ip->addrs, dip->addrs, sizeof(ip->addrs));
8002347c:	e51b3010 	ldr	r3, [fp, #-16]
80023480:	e283201c 	add	r2, r3, #28
80023484:	e51b300c 	ldr	r3, [fp, #-12]
80023488:	e283300c 	add	r3, r3, #12
8002348c:	e1a00002 	mov	r0, r2
80023490:	e1a01003 	mov	r1, r3
80023494:	e3a02034 	mov	r2, #52	; 0x34
80023498:	ebfff34e 	bl	800201d8 <memmove>
        brelse(bp);
8002349c:	e51b0008 	ldr	r0, [fp, #-8]
800234a0:	ebfff5fa 	bl	80020c90 <brelse>
        ip->flags |= I_VALID;
800234a4:	e51b3010 	ldr	r3, [fp, #-16]
800234a8:	e593300c 	ldr	r3, [r3, #12]
800234ac:	e3832002 	orr	r2, r3, #2
800234b0:	e51b3010 	ldr	r3, [fp, #-16]
800234b4:	e583200c 	str	r2, [r3, #12]

        if (ip->type == 0) {
800234b8:	e51b3010 	ldr	r3, [fp, #-16]
800234bc:	e1d331b0 	ldrh	r3, [r3, #16]
800234c0:	e3530000 	cmp	r3, #0
800234c4:	1a000002 	bne	800234d4 <ilock+0x194>
            panic("ilock: no type");
800234c8:	e3090d80 	movw	r0, #40320	; 0x9d80
800234cc:	e3480002 	movt	r0, #32770	; 0x8002
800234d0:	ebfff9b9 	bl	80021bbc <panic>
        }
    }
}
800234d4:	e24bd004 	sub	sp, fp, #4
800234d8:	e8bd8800 	pop	{fp, pc}

800234dc <iunlock>:

// Unlock the given inode.
void iunlock (struct inode *ip)
{
800234dc:	e92d4800 	push	{fp, lr}
800234e0:	e28db004 	add	fp, sp, #4
800234e4:	e24dd008 	sub	sp, sp, #8
800234e8:	e50b0008 	str	r0, [fp, #-8]
    if (ip == 0 || !(ip->flags & I_BUSY) || ip->ref < 1) {
800234ec:	e51b3008 	ldr	r3, [fp, #-8]
800234f0:	e3530000 	cmp	r3, #0
800234f4:	0a000008 	beq	8002351c <iunlock+0x40>
800234f8:	e51b3008 	ldr	r3, [fp, #-8]
800234fc:	e593300c 	ldr	r3, [r3, #12]
80023500:	e2033001 	and	r3, r3, #1
80023504:	e3530000 	cmp	r3, #0
80023508:	0a000003 	beq	8002351c <iunlock+0x40>
8002350c:	e51b3008 	ldr	r3, [fp, #-8]
80023510:	e5933008 	ldr	r3, [r3, #8]
80023514:	e3530000 	cmp	r3, #0
80023518:	ca000002 	bgt	80023528 <iunlock+0x4c>
        panic("iunlock");
8002351c:	e3090d90 	movw	r0, #40336	; 0x9d90
80023520:	e3480002 	movt	r0, #32770	; 0x8002
80023524:	ebfff9a4 	bl	80021bbc <panic>
    }

    acquire(&icache.lock);
80023528:	e30d04d8 	movw	r0, #54488	; 0xd4d8
8002352c:	e348000a 	movt	r0, #32778	; 0x800a
80023530:	eb000ad5 	bl	8002608c <acquire>
    ip->flags &= ~I_BUSY;
80023534:	e51b3008 	ldr	r3, [fp, #-8]
80023538:	e593300c 	ldr	r3, [r3, #12]
8002353c:	e3c32001 	bic	r2, r3, #1
80023540:	e51b3008 	ldr	r3, [fp, #-8]
80023544:	e583200c 	str	r2, [r3, #12]
    wakeup(ip);
80023548:	e51b0008 	ldr	r0, [fp, #-8]
8002354c:	eb000a3f 	bl	80025e50 <wakeup>
    release(&icache.lock);
80023550:	e30d04d8 	movw	r0, #54488	; 0xd4d8
80023554:	e348000a 	movt	r0, #32778	; 0x800a
80023558:	eb000ad5 	bl	800260b4 <release>
}
8002355c:	e24bd004 	sub	sp, fp, #4
80023560:	e8bd8800 	pop	{fp, pc}

80023564 <iput>:
// If that was the last reference, the inode cache entry can
// be recycled.
// If that was the last reference and the inode has no links
// to it, free the inode (and its content) on disk.
void iput (struct inode *ip)
{
80023564:	e92d4800 	push	{fp, lr}
80023568:	e28db004 	add	fp, sp, #4
8002356c:	e24dd008 	sub	sp, sp, #8
80023570:	e50b0008 	str	r0, [fp, #-8]
    acquire(&icache.lock);
80023574:	e30d04d8 	movw	r0, #54488	; 0xd4d8
80023578:	e348000a 	movt	r0, #32778	; 0x800a
8002357c:	eb000ac2 	bl	8002608c <acquire>

    if (ip->ref == 1 && (ip->flags & I_VALID) && ip->nlink == 0) {
80023580:	e51b3008 	ldr	r3, [fp, #-8]
80023584:	e5933008 	ldr	r3, [r3, #8]
80023588:	e3530001 	cmp	r3, #1
8002358c:	1a000028 	bne	80023634 <iput+0xd0>
80023590:	e51b3008 	ldr	r3, [fp, #-8]
80023594:	e593300c 	ldr	r3, [r3, #12]
80023598:	e2033002 	and	r3, r3, #2
8002359c:	e3530000 	cmp	r3, #0
800235a0:	0a000023 	beq	80023634 <iput+0xd0>
800235a4:	e51b3008 	ldr	r3, [fp, #-8]
800235a8:	e1d331b6 	ldrh	r3, [r3, #22]
800235ac:	e3530000 	cmp	r3, #0
800235b0:	1a00001f 	bne	80023634 <iput+0xd0>
        // inode has no links: truncate and free inode.
        if (ip->flags & I_BUSY) {
800235b4:	e51b3008 	ldr	r3, [fp, #-8]
800235b8:	e593300c 	ldr	r3, [r3, #12]
800235bc:	e2033001 	and	r3, r3, #1
800235c0:	e6ef3073 	uxtb	r3, r3
800235c4:	e3530000 	cmp	r3, #0
800235c8:	0a000002 	beq	800235d8 <iput+0x74>
            panic("iput busy");
800235cc:	e3090d98 	movw	r0, #40344	; 0x9d98
800235d0:	e3480002 	movt	r0, #32770	; 0x8002
800235d4:	ebfff978 	bl	80021bbc <panic>
        }

        ip->flags |= I_BUSY;
800235d8:	e51b3008 	ldr	r3, [fp, #-8]
800235dc:	e593300c 	ldr	r3, [r3, #12]
800235e0:	e3832001 	orr	r2, r3, #1
800235e4:	e51b3008 	ldr	r3, [fp, #-8]
800235e8:	e583200c 	str	r2, [r3, #12]
        release(&icache.lock);
800235ec:	e30d04d8 	movw	r0, #54488	; 0xd4d8
800235f0:	e348000a 	movt	r0, #32778	; 0x800a
800235f4:	eb000aae 	bl	800260b4 <release>
        itrunc(ip);
800235f8:	e51b0008 	ldr	r0, [fp, #-8]
800235fc:	eb000083 	bl	80023810 <itrunc>
        ip->type = 0;
80023600:	e51b3008 	ldr	r3, [fp, #-8]
80023604:	e3a02000 	mov	r2, #0
80023608:	e1c321b0 	strh	r2, [r3, #16]
        iupdate(ip);
8002360c:	e51b0008 	ldr	r0, [fp, #-8]
80023610:	ebfffead 	bl	800230cc <iupdate>

        acquire(&icache.lock);
80023614:	e30d04d8 	movw	r0, #54488	; 0xd4d8
80023618:	e348000a 	movt	r0, #32778	; 0x800a
8002361c:	eb000a9a 	bl	8002608c <acquire>
        ip->flags = 0;
80023620:	e51b3008 	ldr	r3, [fp, #-8]
80023624:	e3a02000 	mov	r2, #0
80023628:	e583200c 	str	r2, [r3, #12]
        wakeup(ip);
8002362c:	e51b0008 	ldr	r0, [fp, #-8]
80023630:	eb000a06 	bl	80025e50 <wakeup>
    }

    ip->ref--;
80023634:	e51b3008 	ldr	r3, [fp, #-8]
80023638:	e5933008 	ldr	r3, [r3, #8]
8002363c:	e2432001 	sub	r2, r3, #1
80023640:	e51b3008 	ldr	r3, [fp, #-8]
80023644:	e5832008 	str	r2, [r3, #8]
    release(&icache.lock);
80023648:	e30d04d8 	movw	r0, #54488	; 0xd4d8
8002364c:	e348000a 	movt	r0, #32778	; 0x800a
80023650:	eb000a97 	bl	800260b4 <release>
}
80023654:	e24bd004 	sub	sp, fp, #4
80023658:	e8bd8800 	pop	{fp, pc}

8002365c <iunlockput>:

// Common idiom: unlock, then put.
void iunlockput (struct inode *ip)
{
8002365c:	e92d4800 	push	{fp, lr}
80023660:	e28db004 	add	fp, sp, #4
80023664:	e24dd008 	sub	sp, sp, #8
80023668:	e50b0008 	str	r0, [fp, #-8]
    iunlock(ip);
8002366c:	e51b0008 	ldr	r0, [fp, #-8]
80023670:	ebffff99 	bl	800234dc <iunlock>
    iput(ip);
80023674:	e51b0008 	ldr	r0, [fp, #-8]
80023678:	ebffffb9 	bl	80023564 <iput>
}
8002367c:	e24bd004 	sub	sp, fp, #4
80023680:	e8bd8800 	pop	{fp, pc}

80023684 <bmap>:
// listed in block ip->addrs[NDIRECT].

// Return the disk block address of the nth block in inode ip.
// If there is no such block, bmap allocates one.
static uint bmap (struct inode *ip, uint bn)
{
80023684:	e92d4810 	push	{r4, fp, lr}
80023688:	e28db008 	add	fp, sp, #8
8002368c:	e24dd01c 	sub	sp, sp, #28
80023690:	e50b0020 	str	r0, [fp, #-32]	; 0xffffffe0
80023694:	e50b1024 	str	r1, [fp, #-36]	; 0xffffffdc
    uint addr, *a;
    struct buf *bp;

    if (bn < NDIRECT) {
80023698:	e51b3024 	ldr	r3, [fp, #-36]	; 0xffffffdc
8002369c:	e353000b 	cmp	r3, #11
800236a0:	8a00001d 	bhi	8002371c <bmap+0x98>
        if ((addr = ip->addrs[bn]) == 0) {
800236a4:	e51b2020 	ldr	r2, [fp, #-32]	; 0xffffffe0
800236a8:	e51b3024 	ldr	r3, [fp, #-36]	; 0xffffffdc
800236ac:	e2833006 	add	r3, r3, #6
800236b0:	e3a01004 	mov	r1, #4
800236b4:	e1a03103 	lsl	r3, r3, #2
800236b8:	e0822003 	add	r2, r2, r3
800236bc:	e1a03001 	mov	r3, r1
800236c0:	e0823003 	add	r3, r2, r3
800236c4:	e5933000 	ldr	r3, [r3]
800236c8:	e50b3010 	str	r3, [fp, #-16]
800236cc:	e51b3010 	ldr	r3, [fp, #-16]
800236d0:	e3530000 	cmp	r3, #0
800236d4:	1a00000e 	bne	80023714 <bmap+0x90>
            ip->addrs[bn] = addr = balloc(ip->dev);
800236d8:	e51b3020 	ldr	r3, [fp, #-32]	; 0xffffffe0
800236dc:	e5933000 	ldr	r3, [r3]
800236e0:	e1a00003 	mov	r0, r3
800236e4:	ebfffd63 	bl	80022c78 <balloc>
800236e8:	e50b0010 	str	r0, [fp, #-16]
800236ec:	e51b2020 	ldr	r2, [fp, #-32]	; 0xffffffe0
800236f0:	e51b3024 	ldr	r3, [fp, #-36]	; 0xffffffdc
800236f4:	e2833006 	add	r3, r3, #6
800236f8:	e3a01004 	mov	r1, #4
800236fc:	e1a03103 	lsl	r3, r3, #2
80023700:	e0822003 	add	r2, r2, r3
80023704:	e1a03001 	mov	r3, r1
80023708:	e0823003 	add	r3, r2, r3
8002370c:	e51b2010 	ldr	r2, [fp, #-16]
80023710:	e5832000 	str	r2, [r3]
        }

        return addr;
80023714:	e51b3010 	ldr	r3, [fp, #-16]
80023718:	ea000039 	b	80023804 <bmap+0x180>
    }

    bn -= NDIRECT;
8002371c:	e51b3024 	ldr	r3, [fp, #-36]	; 0xffffffdc
80023720:	e243300c 	sub	r3, r3, #12
80023724:	e50b3024 	str	r3, [fp, #-36]	; 0xffffffdc

    if (bn < NINDIRECT) {
80023728:	e51b3024 	ldr	r3, [fp, #-36]	; 0xffffffdc
8002372c:	e353007f 	cmp	r3, #127	; 0x7f
80023730:	8a000030 	bhi	800237f8 <bmap+0x174>
        // Load indirect block, allocating if necessary.
        if ((addr = ip->addrs[NDIRECT]) == 0) {
80023734:	e51b3020 	ldr	r3, [fp, #-32]	; 0xffffffe0
80023738:	e593304c 	ldr	r3, [r3, #76]	; 0x4c
8002373c:	e50b3010 	str	r3, [fp, #-16]
80023740:	e51b3010 	ldr	r3, [fp, #-16]
80023744:	e3530000 	cmp	r3, #0
80023748:	1a000007 	bne	8002376c <bmap+0xe8>
            ip->addrs[NDIRECT] = addr = balloc(ip->dev);
8002374c:	e51b3020 	ldr	r3, [fp, #-32]	; 0xffffffe0
80023750:	e5933000 	ldr	r3, [r3]
80023754:	e1a00003 	mov	r0, r3
80023758:	ebfffd46 	bl	80022c78 <balloc>
8002375c:	e50b0010 	str	r0, [fp, #-16]
80023760:	e51b3020 	ldr	r3, [fp, #-32]	; 0xffffffe0
80023764:	e51b2010 	ldr	r2, [fp, #-16]
80023768:	e583204c 	str	r2, [r3, #76]	; 0x4c
        }

        bp = bread(ip->dev, addr);
8002376c:	e51b3020 	ldr	r3, [fp, #-32]	; 0xffffffe0
80023770:	e5933000 	ldr	r3, [r3]
80023774:	e1a00003 	mov	r0, r3
80023778:	e51b1010 	ldr	r1, [fp, #-16]
8002377c:	ebfff51a 	bl	80020bec <bread>
80023780:	e50b0014 	str	r0, [fp, #-20]	; 0xffffffec
        a = (uint*) bp->data;
80023784:	e51b3014 	ldr	r3, [fp, #-20]	; 0xffffffec
80023788:	e2833018 	add	r3, r3, #24
8002378c:	e50b3018 	str	r3, [fp, #-24]	; 0xffffffe8

        if ((addr = a[bn]) == 0) {
80023790:	e51b3024 	ldr	r3, [fp, #-36]	; 0xffffffdc
80023794:	e1a03103 	lsl	r3, r3, #2
80023798:	e51b2018 	ldr	r2, [fp, #-24]	; 0xffffffe8
8002379c:	e0823003 	add	r3, r2, r3
800237a0:	e5933000 	ldr	r3, [r3]
800237a4:	e50b3010 	str	r3, [fp, #-16]
800237a8:	e51b3010 	ldr	r3, [fp, #-16]
800237ac:	e3530000 	cmp	r3, #0
800237b0:	1a00000c 	bne	800237e8 <bmap+0x164>
            a[bn] = addr = balloc(ip->dev);
800237b4:	e51b3024 	ldr	r3, [fp, #-36]	; 0xffffffdc
800237b8:	e1a03103 	lsl	r3, r3, #2
800237bc:	e51b2018 	ldr	r2, [fp, #-24]	; 0xffffffe8
800237c0:	e0824003 	add	r4, r2, r3
800237c4:	e51b3020 	ldr	r3, [fp, #-32]	; 0xffffffe0
800237c8:	e5933000 	ldr	r3, [r3]
800237cc:	e1a00003 	mov	r0, r3
800237d0:	ebfffd28 	bl	80022c78 <balloc>
800237d4:	e50b0010 	str	r0, [fp, #-16]
800237d8:	e51b3010 	ldr	r3, [fp, #-16]
800237dc:	e5843000 	str	r3, [r4]
            log_write(bp);
800237e0:	e51b0014 	ldr	r0, [fp, #-20]	; 0xffffffec
800237e4:	eb0003f9 	bl	800247d0 <log_write>
        }

        brelse(bp);
800237e8:	e51b0014 	ldr	r0, [fp, #-20]	; 0xffffffec
800237ec:	ebfff527 	bl	80020c90 <brelse>
        return addr;
800237f0:	e51b3010 	ldr	r3, [fp, #-16]
800237f4:	ea000002 	b	80023804 <bmap+0x180>
    }

    panic("bmap: out of range");
800237f8:	e3090da4 	movw	r0, #40356	; 0x9da4
800237fc:	e3480002 	movt	r0, #32770	; 0x8002
80023800:	ebfff8ed 	bl	80021bbc <panic>
}
80023804:	e1a00003 	mov	r0, r3
80023808:	e24bd008 	sub	sp, fp, #8
8002380c:	e8bd8810 	pop	{r4, fp, pc}

80023810 <itrunc>:
// Only called when the inode has no links
// to it (no directory entries referring to it)
// and has no in-memory reference to it (is
// not an open file or current directory).
static void itrunc (struct inode *ip)
{
80023810:	e92d4800 	push	{fp, lr}
80023814:	e28db004 	add	fp, sp, #4
80023818:	e24dd018 	sub	sp, sp, #24
8002381c:	e50b0018 	str	r0, [fp, #-24]	; 0xffffffe8
    int i, j;
    struct buf *bp;
    uint *a;

    for (i = 0; i < NDIRECT; i++) {
80023820:	e3a03000 	mov	r3, #0
80023824:	e50b3008 	str	r3, [fp, #-8]
80023828:	ea000026 	b	800238c8 <itrunc+0xb8>
        if (ip->addrs[i]) {
8002382c:	e51b2018 	ldr	r2, [fp, #-24]	; 0xffffffe8
80023830:	e51b3008 	ldr	r3, [fp, #-8]
80023834:	e2833006 	add	r3, r3, #6
80023838:	e3a01004 	mov	r1, #4
8002383c:	e1a03103 	lsl	r3, r3, #2
80023840:	e0822003 	add	r2, r2, r3
80023844:	e1a03001 	mov	r3, r1
80023848:	e0823003 	add	r3, r2, r3
8002384c:	e5933000 	ldr	r3, [r3]
80023850:	e3530000 	cmp	r3, #0
80023854:	0a000018 	beq	800238bc <itrunc+0xac>
            bfree(ip->dev, ip->addrs[i]);
80023858:	e51b3018 	ldr	r3, [fp, #-24]	; 0xffffffe8
8002385c:	e5933000 	ldr	r3, [r3]
80023860:	e1a02003 	mov	r2, r3
80023864:	e51b1018 	ldr	r1, [fp, #-24]	; 0xffffffe8
80023868:	e51b3008 	ldr	r3, [fp, #-8]
8002386c:	e2833006 	add	r3, r3, #6
80023870:	e3a00004 	mov	r0, #4
80023874:	e1a03103 	lsl	r3, r3, #2
80023878:	e0811003 	add	r1, r1, r3
8002387c:	e1a03000 	mov	r3, r0
80023880:	e0813003 	add	r3, r1, r3
80023884:	e5933000 	ldr	r3, [r3]
80023888:	e1a00002 	mov	r0, r2
8002388c:	e1a01003 	mov	r1, r3
80023890:	ebfffd73 	bl	80022e64 <bfree>
            ip->addrs[i] = 0;
80023894:	e51b2018 	ldr	r2, [fp, #-24]	; 0xffffffe8
80023898:	e51b3008 	ldr	r3, [fp, #-8]
8002389c:	e2833006 	add	r3, r3, #6
800238a0:	e3a01004 	mov	r1, #4
800238a4:	e1a03103 	lsl	r3, r3, #2
800238a8:	e0822003 	add	r2, r2, r3
800238ac:	e1a03001 	mov	r3, r1
800238b0:	e0823003 	add	r3, r2, r3
800238b4:	e3a02000 	mov	r2, #0
800238b8:	e5832000 	str	r2, [r3]
{
    int i, j;
    struct buf *bp;
    uint *a;

    for (i = 0; i < NDIRECT; i++) {
800238bc:	e51b3008 	ldr	r3, [fp, #-8]
800238c0:	e2833001 	add	r3, r3, #1
800238c4:	e50b3008 	str	r3, [fp, #-8]
800238c8:	e51b3008 	ldr	r3, [fp, #-8]
800238cc:	e353000b 	cmp	r3, #11
800238d0:	daffffd5 	ble	8002382c <itrunc+0x1c>
            bfree(ip->dev, ip->addrs[i]);
            ip->addrs[i] = 0;
        }
    }

    if (ip->addrs[NDIRECT]) {
800238d4:	e51b3018 	ldr	r3, [fp, #-24]	; 0xffffffe8
800238d8:	e593304c 	ldr	r3, [r3, #76]	; 0x4c
800238dc:	e3530000 	cmp	r3, #0
800238e0:	0a000032 	beq	800239b0 <itrunc+0x1a0>
        bp = bread(ip->dev, ip->addrs[NDIRECT]);
800238e4:	e51b3018 	ldr	r3, [fp, #-24]	; 0xffffffe8
800238e8:	e5932000 	ldr	r2, [r3]
800238ec:	e51b3018 	ldr	r3, [fp, #-24]	; 0xffffffe8
800238f0:	e593304c 	ldr	r3, [r3, #76]	; 0x4c
800238f4:	e1a00002 	mov	r0, r2
800238f8:	e1a01003 	mov	r1, r3
800238fc:	ebfff4ba 	bl	80020bec <bread>
80023900:	e50b0010 	str	r0, [fp, #-16]
        a = (uint*) bp->data;
80023904:	e51b3010 	ldr	r3, [fp, #-16]
80023908:	e2833018 	add	r3, r3, #24
8002390c:	e50b3014 	str	r3, [fp, #-20]	; 0xffffffec

        for (j = 0; j < NINDIRECT; j++) {
80023910:	e3a03000 	mov	r3, #0
80023914:	e50b300c 	str	r3, [fp, #-12]
80023918:	ea000014 	b	80023970 <itrunc+0x160>
            if (a[j]) {
8002391c:	e51b300c 	ldr	r3, [fp, #-12]
80023920:	e1a03103 	lsl	r3, r3, #2
80023924:	e51b2014 	ldr	r2, [fp, #-20]	; 0xffffffec
80023928:	e0823003 	add	r3, r2, r3
8002392c:	e5933000 	ldr	r3, [r3]
80023930:	e3530000 	cmp	r3, #0
80023934:	0a00000a 	beq	80023964 <itrunc+0x154>
                bfree(ip->dev, a[j]);
80023938:	e51b3018 	ldr	r3, [fp, #-24]	; 0xffffffe8
8002393c:	e5933000 	ldr	r3, [r3]
80023940:	e1a02003 	mov	r2, r3
80023944:	e51b300c 	ldr	r3, [fp, #-12]
80023948:	e1a03103 	lsl	r3, r3, #2
8002394c:	e51b1014 	ldr	r1, [fp, #-20]	; 0xffffffec
80023950:	e0813003 	add	r3, r1, r3
80023954:	e5933000 	ldr	r3, [r3]
80023958:	e1a00002 	mov	r0, r2
8002395c:	e1a01003 	mov	r1, r3
80023960:	ebfffd3f 	bl	80022e64 <bfree>

    if (ip->addrs[NDIRECT]) {
        bp = bread(ip->dev, ip->addrs[NDIRECT]);
        a = (uint*) bp->data;

        for (j = 0; j < NINDIRECT; j++) {
80023964:	e51b300c 	ldr	r3, [fp, #-12]
80023968:	e2833001 	add	r3, r3, #1
8002396c:	e50b300c 	str	r3, [fp, #-12]
80023970:	e51b300c 	ldr	r3, [fp, #-12]
80023974:	e353007f 	cmp	r3, #127	; 0x7f
80023978:	9affffe7 	bls	8002391c <itrunc+0x10c>
            if (a[j]) {
                bfree(ip->dev, a[j]);
            }
        }

        brelse(bp);
8002397c:	e51b0010 	ldr	r0, [fp, #-16]
80023980:	ebfff4c2 	bl	80020c90 <brelse>
        bfree(ip->dev, ip->addrs[NDIRECT]);
80023984:	e51b3018 	ldr	r3, [fp, #-24]	; 0xffffffe8
80023988:	e5933000 	ldr	r3, [r3]
8002398c:	e1a02003 	mov	r2, r3
80023990:	e51b3018 	ldr	r3, [fp, #-24]	; 0xffffffe8
80023994:	e593304c 	ldr	r3, [r3, #76]	; 0x4c
80023998:	e1a00002 	mov	r0, r2
8002399c:	e1a01003 	mov	r1, r3
800239a0:	ebfffd2f 	bl	80022e64 <bfree>
        ip->addrs[NDIRECT] = 0;
800239a4:	e51b3018 	ldr	r3, [fp, #-24]	; 0xffffffe8
800239a8:	e3a02000 	mov	r2, #0
800239ac:	e583204c 	str	r2, [r3, #76]	; 0x4c
    }

    ip->size = 0;
800239b0:	e51b3018 	ldr	r3, [fp, #-24]	; 0xffffffe8
800239b4:	e3a02000 	mov	r2, #0
800239b8:	e5832018 	str	r2, [r3, #24]
    iupdate(ip);
800239bc:	e51b0018 	ldr	r0, [fp, #-24]	; 0xffffffe8
800239c0:	ebfffdc1 	bl	800230cc <iupdate>
}
800239c4:	e24bd004 	sub	sp, fp, #4
800239c8:	e8bd8800 	pop	{fp, pc}

800239cc <stati>:

// Copy stat information from inode.
void stati (struct inode *ip, struct stat *st)
{
800239cc:	e52db004 	push	{fp}		; (str fp, [sp, #-4]!)
800239d0:	e28db000 	add	fp, sp, #0
800239d4:	e24dd00c 	sub	sp, sp, #12
800239d8:	e50b0008 	str	r0, [fp, #-8]
800239dc:	e50b100c 	str	r1, [fp, #-12]
    st->dev = ip->dev;
800239e0:	e51b3008 	ldr	r3, [fp, #-8]
800239e4:	e5933000 	ldr	r3, [r3]
800239e8:	e1a02003 	mov	r2, r3
800239ec:	e51b300c 	ldr	r3, [fp, #-12]
800239f0:	e5832004 	str	r2, [r3, #4]
    st->ino = ip->inum;
800239f4:	e51b3008 	ldr	r3, [fp, #-8]
800239f8:	e5932004 	ldr	r2, [r3, #4]
800239fc:	e51b300c 	ldr	r3, [fp, #-12]
80023a00:	e5832008 	str	r2, [r3, #8]
    st->type = ip->type;
80023a04:	e51b3008 	ldr	r3, [fp, #-8]
80023a08:	e1d321b0 	ldrh	r2, [r3, #16]
80023a0c:	e51b300c 	ldr	r3, [fp, #-12]
80023a10:	e1c320b0 	strh	r2, [r3]
    st->nlink = ip->nlink;
80023a14:	e51b3008 	ldr	r3, [fp, #-8]
80023a18:	e1d321b6 	ldrh	r2, [r3, #22]
80023a1c:	e51b300c 	ldr	r3, [fp, #-12]
80023a20:	e1c320bc 	strh	r2, [r3, #12]
    st->size = ip->size;
80023a24:	e51b3008 	ldr	r3, [fp, #-8]
80023a28:	e5932018 	ldr	r2, [r3, #24]
80023a2c:	e51b300c 	ldr	r3, [fp, #-12]
80023a30:	e5832010 	str	r2, [r3, #16]
}
80023a34:	e28bd000 	add	sp, fp, #0
80023a38:	e8bd0800 	pop	{fp}
80023a3c:	e12fff1e 	bx	lr

80023a40 <readi>:

//PAGEBREAK!
// Read data from inode.
int readi (struct inode *ip, char *dst, uint off, uint n)
{
80023a40:	e92d4810 	push	{r4, fp, lr}
80023a44:	e28db008 	add	fp, sp, #8
80023a48:	e24dd024 	sub	sp, sp, #36	; 0x24
80023a4c:	e50b0020 	str	r0, [fp, #-32]	; 0xffffffe0
80023a50:	e50b1024 	str	r1, [fp, #-36]	; 0xffffffdc
80023a54:	e50b2028 	str	r2, [fp, #-40]	; 0xffffffd8
80023a58:	e50b302c 	str	r3, [fp, #-44]	; 0xffffffd4
    uint tot, m;
    struct buf *bp;

    if (ip->type == T_DEV) {
80023a5c:	e51b3020 	ldr	r3, [fp, #-32]	; 0xffffffe0
80023a60:	e1d331b0 	ldrh	r3, [r3, #16]
80023a64:	e6bf3073 	sxth	r3, r3
80023a68:	e3530003 	cmp	r3, #3
80023a6c:	1a00001f 	bne	80023af0 <readi+0xb0>
        if (ip->major < 0 || ip->major >= NDEV || !devsw[ip->major].read) {
80023a70:	e51b3020 	ldr	r3, [fp, #-32]	; 0xffffffe0
80023a74:	e1d331b2 	ldrh	r3, [r3, #18]
80023a78:	e6bf3073 	sxth	r3, r3
80023a7c:	e3530000 	cmp	r3, #0
80023a80:	ba00000c 	blt	80023ab8 <readi+0x78>
80023a84:	e51b3020 	ldr	r3, [fp, #-32]	; 0xffffffe0
80023a88:	e1d331b2 	ldrh	r3, [r3, #18]
80023a8c:	e6bf3073 	sxth	r3, r3
80023a90:	e3530009 	cmp	r3, #9
80023a94:	ca000007 	bgt	80023ab8 <readi+0x78>
80023a98:	e51b3020 	ldr	r3, [fp, #-32]	; 0xffffffe0
80023a9c:	e1d331b2 	ldrh	r3, [r3, #18]
80023aa0:	e6bf2073 	sxth	r2, r3
80023aa4:	e30d3488 	movw	r3, #54408	; 0xd488
80023aa8:	e348300a 	movt	r3, #32778	; 0x800a
80023aac:	e7933182 	ldr	r3, [r3, r2, lsl #3]
80023ab0:	e3530000 	cmp	r3, #0
80023ab4:	1a000001 	bne	80023ac0 <readi+0x80>
            return -1;
80023ab8:	e3e03000 	mvn	r3, #0
80023abc:	ea00005a 	b	80023c2c <readi+0x1ec>
        }

        return devsw[ip->major].read(ip, dst, n);
80023ac0:	e51b3020 	ldr	r3, [fp, #-32]	; 0xffffffe0
80023ac4:	e1d331b2 	ldrh	r3, [r3, #18]
80023ac8:	e6bf2073 	sxth	r2, r3
80023acc:	e30d3488 	movw	r3, #54408	; 0xd488
80023ad0:	e348300a 	movt	r3, #32778	; 0x800a
80023ad4:	e7933182 	ldr	r3, [r3, r2, lsl #3]
80023ad8:	e51b202c 	ldr	r2, [fp, #-44]	; 0xffffffd4
80023adc:	e51b0020 	ldr	r0, [fp, #-32]	; 0xffffffe0
80023ae0:	e51b1024 	ldr	r1, [fp, #-36]	; 0xffffffdc
80023ae4:	e12fff33 	blx	r3
80023ae8:	e1a03000 	mov	r3, r0
80023aec:	ea00004e 	b	80023c2c <readi+0x1ec>
    }

    if (off > ip->size || off + n < off) {
80023af0:	e51b3020 	ldr	r3, [fp, #-32]	; 0xffffffe0
80023af4:	e5932018 	ldr	r2, [r3, #24]
80023af8:	e51b3028 	ldr	r3, [fp, #-40]	; 0xffffffd8
80023afc:	e1520003 	cmp	r2, r3
80023b00:	3a000005 	bcc	80023b1c <readi+0xdc>
80023b04:	e51b2028 	ldr	r2, [fp, #-40]	; 0xffffffd8
80023b08:	e51b302c 	ldr	r3, [fp, #-44]	; 0xffffffd4
80023b0c:	e0822003 	add	r2, r2, r3
80023b10:	e51b3028 	ldr	r3, [fp, #-40]	; 0xffffffd8
80023b14:	e1520003 	cmp	r2, r3
80023b18:	2a000001 	bcs	80023b24 <readi+0xe4>
        return -1;
80023b1c:	e3e03000 	mvn	r3, #0
80023b20:	ea000041 	b	80023c2c <readi+0x1ec>
    }

    if (off + n > ip->size) {
80023b24:	e51b2028 	ldr	r2, [fp, #-40]	; 0xffffffd8
80023b28:	e51b302c 	ldr	r3, [fp, #-44]	; 0xffffffd4
80023b2c:	e0822003 	add	r2, r2, r3
80023b30:	e51b3020 	ldr	r3, [fp, #-32]	; 0xffffffe0
80023b34:	e5933018 	ldr	r3, [r3, #24]
80023b38:	e1520003 	cmp	r2, r3
80023b3c:	9a000004 	bls	80023b54 <readi+0x114>
        n = ip->size - off;
80023b40:	e51b3020 	ldr	r3, [fp, #-32]	; 0xffffffe0
80023b44:	e5932018 	ldr	r2, [r3, #24]
80023b48:	e51b3028 	ldr	r3, [fp, #-40]	; 0xffffffd8
80023b4c:	e0633002 	rsb	r3, r3, r2
80023b50:	e50b302c 	str	r3, [fp, #-44]	; 0xffffffd4
    }

    for (tot = 0; tot < n; tot += m, off += m, dst += m) {
80023b54:	e3a03000 	mov	r3, #0
80023b58:	e50b3010 	str	r3, [fp, #-16]
80023b5c:	ea00002d 	b	80023c18 <readi+0x1d8>
        bp = bread(ip->dev, bmap(ip, off / BSIZE));
80023b60:	e51b3020 	ldr	r3, [fp, #-32]	; 0xffffffe0
80023b64:	e5934000 	ldr	r4, [r3]
80023b68:	e51b3028 	ldr	r3, [fp, #-40]	; 0xffffffd8
80023b6c:	e1a034a3 	lsr	r3, r3, #9
80023b70:	e51b0020 	ldr	r0, [fp, #-32]	; 0xffffffe0
80023b74:	e1a01003 	mov	r1, r3
80023b78:	ebfffec1 	bl	80023684 <bmap>
80023b7c:	e1a03000 	mov	r3, r0
80023b80:	e1a00004 	mov	r0, r4
80023b84:	e1a01003 	mov	r1, r3
80023b88:	ebfff417 	bl	80020bec <bread>
80023b8c:	e50b0014 	str	r0, [fp, #-20]	; 0xffffffec
        m = min(n - tot, BSIZE - off%BSIZE);
80023b90:	e51b3028 	ldr	r3, [fp, #-40]	; 0xffffffd8
80023b94:	e1a03b83 	lsl	r3, r3, #23
80023b98:	e1a03ba3 	lsr	r3, r3, #23
80023b9c:	e2632c02 	rsb	r2, r3, #512	; 0x200
80023ba0:	e51b102c 	ldr	r1, [fp, #-44]	; 0xffffffd4
80023ba4:	e51b3010 	ldr	r3, [fp, #-16]
80023ba8:	e0633001 	rsb	r3, r3, r1
80023bac:	e1520003 	cmp	r2, r3
80023bb0:	31a03002 	movcc	r3, r2
80023bb4:	e50b3018 	str	r3, [fp, #-24]	; 0xffffffe8
        memmove(dst, bp->data + off % BSIZE, m);
80023bb8:	e51b3014 	ldr	r3, [fp, #-20]	; 0xffffffec
80023bbc:	e2832018 	add	r2, r3, #24
80023bc0:	e51b3028 	ldr	r3, [fp, #-40]	; 0xffffffd8
80023bc4:	e1a03b83 	lsl	r3, r3, #23
80023bc8:	e1a03ba3 	lsr	r3, r3, #23
80023bcc:	e0823003 	add	r3, r2, r3
80023bd0:	e51b0024 	ldr	r0, [fp, #-36]	; 0xffffffdc
80023bd4:	e1a01003 	mov	r1, r3
80023bd8:	e51b2018 	ldr	r2, [fp, #-24]	; 0xffffffe8
80023bdc:	ebfff17d 	bl	800201d8 <memmove>
        brelse(bp);
80023be0:	e51b0014 	ldr	r0, [fp, #-20]	; 0xffffffec
80023be4:	ebfff429 	bl	80020c90 <brelse>

    if (off + n > ip->size) {
        n = ip->size - off;
    }

    for (tot = 0; tot < n; tot += m, off += m, dst += m) {
80023be8:	e51b2010 	ldr	r2, [fp, #-16]
80023bec:	e51b3018 	ldr	r3, [fp, #-24]	; 0xffffffe8
80023bf0:	e0823003 	add	r3, r2, r3
80023bf4:	e50b3010 	str	r3, [fp, #-16]
80023bf8:	e51b2028 	ldr	r2, [fp, #-40]	; 0xffffffd8
80023bfc:	e51b3018 	ldr	r3, [fp, #-24]	; 0xffffffe8
80023c00:	e0823003 	add	r3, r2, r3
80023c04:	e50b3028 	str	r3, [fp, #-40]	; 0xffffffd8
80023c08:	e51b2024 	ldr	r2, [fp, #-36]	; 0xffffffdc
80023c0c:	e51b3018 	ldr	r3, [fp, #-24]	; 0xffffffe8
80023c10:	e0823003 	add	r3, r2, r3
80023c14:	e50b3024 	str	r3, [fp, #-36]	; 0xffffffdc
80023c18:	e51b2010 	ldr	r2, [fp, #-16]
80023c1c:	e51b302c 	ldr	r3, [fp, #-44]	; 0xffffffd4
80023c20:	e1520003 	cmp	r2, r3
80023c24:	3affffcd 	bcc	80023b60 <readi+0x120>
        m = min(n - tot, BSIZE - off%BSIZE);
        memmove(dst, bp->data + off % BSIZE, m);
        brelse(bp);
    }

    return n;
80023c28:	e51b302c 	ldr	r3, [fp, #-44]	; 0xffffffd4
}
80023c2c:	e1a00003 	mov	r0, r3
80023c30:	e24bd008 	sub	sp, fp, #8
80023c34:	e8bd8810 	pop	{r4, fp, pc}

80023c38 <writei>:

// PAGEBREAK!
// Write data to inode.
int writei (struct inode *ip, char *src, uint off, uint n)
{
80023c38:	e92d4810 	push	{r4, fp, lr}
80023c3c:	e28db008 	add	fp, sp, #8
80023c40:	e24dd024 	sub	sp, sp, #36	; 0x24
80023c44:	e50b0020 	str	r0, [fp, #-32]	; 0xffffffe0
80023c48:	e50b1024 	str	r1, [fp, #-36]	; 0xffffffdc
80023c4c:	e50b2028 	str	r2, [fp, #-40]	; 0xffffffd8
80023c50:	e50b302c 	str	r3, [fp, #-44]	; 0xffffffd4
    uint tot, m;
    struct buf *bp;

    if (ip->type == T_DEV) {
80023c54:	e51b3020 	ldr	r3, [fp, #-32]	; 0xffffffe0
80023c58:	e1d331b0 	ldrh	r3, [r3, #16]
80023c5c:	e6bf3073 	sxth	r3, r3
80023c60:	e3530003 	cmp	r3, #3
80023c64:	1a000029 	bne	80023d10 <writei+0xd8>
        if (ip->major < 0 || ip->major >= NDEV || !devsw[ip->major].write) {
80023c68:	e51b3020 	ldr	r3, [fp, #-32]	; 0xffffffe0
80023c6c:	e1d331b2 	ldrh	r3, [r3, #18]
80023c70:	e6bf3073 	sxth	r3, r3
80023c74:	e3530000 	cmp	r3, #0
80023c78:	ba000011 	blt	80023cc4 <writei+0x8c>
80023c7c:	e51b3020 	ldr	r3, [fp, #-32]	; 0xffffffe0
80023c80:	e1d331b2 	ldrh	r3, [r3, #18]
80023c84:	e6bf3073 	sxth	r3, r3
80023c88:	e3530009 	cmp	r3, #9
80023c8c:	ca00000c 	bgt	80023cc4 <writei+0x8c>
80023c90:	e51b3020 	ldr	r3, [fp, #-32]	; 0xffffffe0
80023c94:	e1d331b2 	ldrh	r3, [r3, #18]
80023c98:	e6bf2073 	sxth	r2, r3
80023c9c:	e30d3488 	movw	r3, #54408	; 0xd488
80023ca0:	e348300a 	movt	r3, #32778	; 0x800a
80023ca4:	e3a01004 	mov	r1, #4
80023ca8:	e1a02182 	lsl	r2, r2, #3
80023cac:	e0832002 	add	r2, r3, r2
80023cb0:	e1a03001 	mov	r3, r1
80023cb4:	e0823003 	add	r3, r2, r3
80023cb8:	e5933000 	ldr	r3, [r3]
80023cbc:	e3530000 	cmp	r3, #0
80023cc0:	1a000001 	bne	80023ccc <writei+0x94>
            return -1;
80023cc4:	e3e03000 	mvn	r3, #0
80023cc8:	ea000069 	b	80023e74 <writei+0x23c>
        }

        return devsw[ip->major].write(ip, src, n);
80023ccc:	e51b3020 	ldr	r3, [fp, #-32]	; 0xffffffe0
80023cd0:	e1d331b2 	ldrh	r3, [r3, #18]
80023cd4:	e6bf2073 	sxth	r2, r3
80023cd8:	e30d3488 	movw	r3, #54408	; 0xd488
80023cdc:	e348300a 	movt	r3, #32778	; 0x800a
80023ce0:	e3a01004 	mov	r1, #4
80023ce4:	e1a02182 	lsl	r2, r2, #3
80023ce8:	e0832002 	add	r2, r3, r2
80023cec:	e1a03001 	mov	r3, r1
80023cf0:	e0823003 	add	r3, r2, r3
80023cf4:	e5933000 	ldr	r3, [r3]
80023cf8:	e51b202c 	ldr	r2, [fp, #-44]	; 0xffffffd4
80023cfc:	e51b0020 	ldr	r0, [fp, #-32]	; 0xffffffe0
80023d00:	e51b1024 	ldr	r1, [fp, #-36]	; 0xffffffdc
80023d04:	e12fff33 	blx	r3
80023d08:	e1a03000 	mov	r3, r0
80023d0c:	ea000058 	b	80023e74 <writei+0x23c>
    }

    if (off > ip->size || off + n < off) {
80023d10:	e51b3020 	ldr	r3, [fp, #-32]	; 0xffffffe0
80023d14:	e5932018 	ldr	r2, [r3, #24]
80023d18:	e51b3028 	ldr	r3, [fp, #-40]	; 0xffffffd8
80023d1c:	e1520003 	cmp	r2, r3
80023d20:	3a000005 	bcc	80023d3c <writei+0x104>
80023d24:	e51b2028 	ldr	r2, [fp, #-40]	; 0xffffffd8
80023d28:	e51b302c 	ldr	r3, [fp, #-44]	; 0xffffffd4
80023d2c:	e0822003 	add	r2, r2, r3
80023d30:	e51b3028 	ldr	r3, [fp, #-40]	; 0xffffffd8
80023d34:	e1520003 	cmp	r2, r3
80023d38:	2a000001 	bcs	80023d44 <writei+0x10c>
        return -1;
80023d3c:	e3e03000 	mvn	r3, #0
80023d40:	ea00004b 	b	80023e74 <writei+0x23c>
    }

    if (off + n > MAXFILE * BSIZE) {
80023d44:	e51b2028 	ldr	r2, [fp, #-40]	; 0xffffffd8
80023d48:	e51b302c 	ldr	r3, [fp, #-44]	; 0xffffffd4
80023d4c:	e0823003 	add	r3, r2, r3
80023d50:	e3530b46 	cmp	r3, #71680	; 0x11800
80023d54:	9a000001 	bls	80023d60 <writei+0x128>
        return -1;
80023d58:	e3e03000 	mvn	r3, #0
80023d5c:	ea000044 	b	80023e74 <writei+0x23c>
    }

    for (tot = 0; tot < n; tot += m, off += m, src += m) {
80023d60:	e3a03000 	mov	r3, #0
80023d64:	e50b3010 	str	r3, [fp, #-16]
80023d68:	ea00002f 	b	80023e2c <writei+0x1f4>
        bp = bread(ip->dev, bmap(ip, off / BSIZE));
80023d6c:	e51b3020 	ldr	r3, [fp, #-32]	; 0xffffffe0
80023d70:	e5934000 	ldr	r4, [r3]
80023d74:	e51b3028 	ldr	r3, [fp, #-40]	; 0xffffffd8
80023d78:	e1a034a3 	lsr	r3, r3, #9
80023d7c:	e51b0020 	ldr	r0, [fp, #-32]	; 0xffffffe0
80023d80:	e1a01003 	mov	r1, r3
80023d84:	ebfffe3e 	bl	80023684 <bmap>
80023d88:	e1a03000 	mov	r3, r0
80023d8c:	e1a00004 	mov	r0, r4
80023d90:	e1a01003 	mov	r1, r3
80023d94:	ebfff394 	bl	80020bec <bread>
80023d98:	e50b0014 	str	r0, [fp, #-20]	; 0xffffffec
        m = min(n - tot, BSIZE - off%BSIZE);
80023d9c:	e51b3028 	ldr	r3, [fp, #-40]	; 0xffffffd8
80023da0:	e1a03b83 	lsl	r3, r3, #23
80023da4:	e1a03ba3 	lsr	r3, r3, #23
80023da8:	e2632c02 	rsb	r2, r3, #512	; 0x200
80023dac:	e51b102c 	ldr	r1, [fp, #-44]	; 0xffffffd4
80023db0:	e51b3010 	ldr	r3, [fp, #-16]
80023db4:	e0633001 	rsb	r3, r3, r1
80023db8:	e1520003 	cmp	r2, r3
80023dbc:	31a03002 	movcc	r3, r2
80023dc0:	e50b3018 	str	r3, [fp, #-24]	; 0xffffffe8
        memmove(bp->data + off % BSIZE, src, m);
80023dc4:	e51b3014 	ldr	r3, [fp, #-20]	; 0xffffffec
80023dc8:	e2832018 	add	r2, r3, #24
80023dcc:	e51b3028 	ldr	r3, [fp, #-40]	; 0xffffffd8
80023dd0:	e1a03b83 	lsl	r3, r3, #23
80023dd4:	e1a03ba3 	lsr	r3, r3, #23
80023dd8:	e0823003 	add	r3, r2, r3
80023ddc:	e1a00003 	mov	r0, r3
80023de0:	e51b1024 	ldr	r1, [fp, #-36]	; 0xffffffdc
80023de4:	e51b2018 	ldr	r2, [fp, #-24]	; 0xffffffe8
80023de8:	ebfff0fa 	bl	800201d8 <memmove>
        log_write(bp);
80023dec:	e51b0014 	ldr	r0, [fp, #-20]	; 0xffffffec
80023df0:	eb000276 	bl	800247d0 <log_write>
        brelse(bp);
80023df4:	e51b0014 	ldr	r0, [fp, #-20]	; 0xffffffec
80023df8:	ebfff3a4 	bl	80020c90 <brelse>

    if (off + n > MAXFILE * BSIZE) {
        return -1;
    }

    for (tot = 0; tot < n; tot += m, off += m, src += m) {
80023dfc:	e51b2010 	ldr	r2, [fp, #-16]
80023e00:	e51b3018 	ldr	r3, [fp, #-24]	; 0xffffffe8
80023e04:	e0823003 	add	r3, r2, r3
80023e08:	e50b3010 	str	r3, [fp, #-16]
80023e0c:	e51b2028 	ldr	r2, [fp, #-40]	; 0xffffffd8
80023e10:	e51b3018 	ldr	r3, [fp, #-24]	; 0xffffffe8
80023e14:	e0823003 	add	r3, r2, r3
80023e18:	e50b3028 	str	r3, [fp, #-40]	; 0xffffffd8
80023e1c:	e51b2024 	ldr	r2, [fp, #-36]	; 0xffffffdc
80023e20:	e51b3018 	ldr	r3, [fp, #-24]	; 0xffffffe8
80023e24:	e0823003 	add	r3, r2, r3
80023e28:	e50b3024 	str	r3, [fp, #-36]	; 0xffffffdc
80023e2c:	e51b2010 	ldr	r2, [fp, #-16]
80023e30:	e51b302c 	ldr	r3, [fp, #-44]	; 0xffffffd4
80023e34:	e1520003 	cmp	r2, r3
80023e38:	3affffcb 	bcc	80023d6c <writei+0x134>
        memmove(bp->data + off % BSIZE, src, m);
        log_write(bp);
        brelse(bp);
    }

    if (n > 0 && off > ip->size) {
80023e3c:	e51b302c 	ldr	r3, [fp, #-44]	; 0xffffffd4
80023e40:	e3530000 	cmp	r3, #0
80023e44:	0a000009 	beq	80023e70 <writei+0x238>
80023e48:	e51b3020 	ldr	r3, [fp, #-32]	; 0xffffffe0
80023e4c:	e5932018 	ldr	r2, [r3, #24]
80023e50:	e51b3028 	ldr	r3, [fp, #-40]	; 0xffffffd8
80023e54:	e1520003 	cmp	r2, r3
80023e58:	2a000004 	bcs	80023e70 <writei+0x238>
        ip->size = off;
80023e5c:	e51b3020 	ldr	r3, [fp, #-32]	; 0xffffffe0
80023e60:	e51b2028 	ldr	r2, [fp, #-40]	; 0xffffffd8
80023e64:	e5832018 	str	r2, [r3, #24]
        iupdate(ip);
80023e68:	e51b0020 	ldr	r0, [fp, #-32]	; 0xffffffe0
80023e6c:	ebfffc96 	bl	800230cc <iupdate>
    }

    return n;
80023e70:	e51b302c 	ldr	r3, [fp, #-44]	; 0xffffffd4
}
80023e74:	e1a00003 	mov	r0, r3
80023e78:	e24bd008 	sub	sp, fp, #8
80023e7c:	e8bd8810 	pop	{r4, fp, pc}

80023e80 <namecmp>:

//PAGEBREAK!
// Directories

int namecmp (const char *s, const char *t)
{
80023e80:	e92d4800 	push	{fp, lr}
80023e84:	e28db004 	add	fp, sp, #4
80023e88:	e24dd008 	sub	sp, sp, #8
80023e8c:	e50b0008 	str	r0, [fp, #-8]
80023e90:	e50b100c 	str	r1, [fp, #-12]
    return strncmp(s, t, DIRSIZ);
80023e94:	e51b0008 	ldr	r0, [fp, #-8]
80023e98:	e51b100c 	ldr	r1, [fp, #-12]
80023e9c:	e3a0200e 	mov	r2, #14
80023ea0:	ebfff127 	bl	80020344 <strncmp>
80023ea4:	e1a03000 	mov	r3, r0
}
80023ea8:	e1a00003 	mov	r0, r3
80023eac:	e24bd004 	sub	sp, fp, #4
80023eb0:	e8bd8800 	pop	{fp, pc}

80023eb4 <dirlookup>:

// Look for a directory entry in a directory.
// If found, set *poff to byte offset of entry.
struct inode* dirlookup (struct inode *dp, char *name, uint *poff)
{
80023eb4:	e92d4800 	push	{fp, lr}
80023eb8:	e28db004 	add	fp, sp, #4
80023ebc:	e24dd028 	sub	sp, sp, #40	; 0x28
80023ec0:	e50b0020 	str	r0, [fp, #-32]	; 0xffffffe0
80023ec4:	e50b1024 	str	r1, [fp, #-36]	; 0xffffffdc
80023ec8:	e50b2028 	str	r2, [fp, #-40]	; 0xffffffd8
    uint off, inum;
    struct dirent de;

    if (dp->type != T_DIR) {
80023ecc:	e51b3020 	ldr	r3, [fp, #-32]	; 0xffffffe0
80023ed0:	e1d331b0 	ldrh	r3, [r3, #16]
80023ed4:	e6bf3073 	sxth	r3, r3
80023ed8:	e3530001 	cmp	r3, #1
80023edc:	0a000002 	beq	80023eec <dirlookup+0x38>
        panic("dirlookup not DIR");
80023ee0:	e3090db8 	movw	r0, #40376	; 0x9db8
80023ee4:	e3480002 	movt	r0, #32770	; 0x8002
80023ee8:	ebfff733 	bl	80021bbc <panic>
    }

    for (off = 0; off < dp->size; off += sizeof(de)) {
80023eec:	e3a03000 	mov	r3, #0
80023ef0:	e50b3008 	str	r3, [fp, #-8]
80023ef4:	ea000029 	b	80023fa0 <dirlookup+0xec>
        if (readi(dp, (char*) &de, off, sizeof(de)) != sizeof(de)) {
80023ef8:	e51b0020 	ldr	r0, [fp, #-32]	; 0xffffffe0
80023efc:	e24b301c 	sub	r3, fp, #28
80023f00:	e1a01003 	mov	r1, r3
80023f04:	e51b2008 	ldr	r2, [fp, #-8]
80023f08:	e3a03010 	mov	r3, #16
80023f0c:	ebfffecb 	bl	80023a40 <readi>
80023f10:	e1a03000 	mov	r3, r0
80023f14:	e3530010 	cmp	r3, #16
80023f18:	0a000002 	beq	80023f28 <dirlookup+0x74>
            panic("dirlink read");
80023f1c:	e3090dcc 	movw	r0, #40396	; 0x9dcc
80023f20:	e3480002 	movt	r0, #32770	; 0x8002
80023f24:	ebfff724 	bl	80021bbc <panic>
        }

        if (de.inum == 0) {
80023f28:	e15b31bc 	ldrh	r3, [fp, #-28]	; 0xffffffe4
80023f2c:	e3530000 	cmp	r3, #0
80023f30:	0a000016 	beq	80023f90 <dirlookup+0xdc>
            continue;
        }

        if (namecmp(name, de.name) == 0) {
80023f34:	e24b301c 	sub	r3, fp, #28
80023f38:	e2833002 	add	r3, r3, #2
80023f3c:	e51b0024 	ldr	r0, [fp, #-36]	; 0xffffffdc
80023f40:	e1a01003 	mov	r1, r3
80023f44:	ebffffcd 	bl	80023e80 <namecmp>
80023f48:	e1a03000 	mov	r3, r0
80023f4c:	e3530000 	cmp	r3, #0
80023f50:	1a00000f 	bne	80023f94 <dirlookup+0xe0>
            // entry matches path element
            if (poff) {
80023f54:	e51b3028 	ldr	r3, [fp, #-40]	; 0xffffffd8
80023f58:	e3530000 	cmp	r3, #0
80023f5c:	0a000002 	beq	80023f6c <dirlookup+0xb8>
                *poff = off;
80023f60:	e51b3028 	ldr	r3, [fp, #-40]	; 0xffffffd8
80023f64:	e51b2008 	ldr	r2, [fp, #-8]
80023f68:	e5832000 	str	r2, [r3]
            }

            inum = de.inum;
80023f6c:	e15b31bc 	ldrh	r3, [fp, #-28]	; 0xffffffe4
80023f70:	e50b300c 	str	r3, [fp, #-12]
            return iget(dp->dev, inum);
80023f74:	e51b3020 	ldr	r3, [fp, #-32]	; 0xffffffe0
80023f78:	e5933000 	ldr	r3, [r3]
80023f7c:	e1a00003 	mov	r0, r3
80023f80:	e51b100c 	ldr	r1, [fp, #-12]
80023f84:	ebfffc88 	bl	800231ac <iget>
80023f88:	e1a03000 	mov	r3, r0
80023f8c:	ea000009 	b	80023fb8 <dirlookup+0x104>
        if (readi(dp, (char*) &de, off, sizeof(de)) != sizeof(de)) {
            panic("dirlink read");
        }

        if (de.inum == 0) {
            continue;
80023f90:	e1a00000 	nop			; (mov r0, r0)

    if (dp->type != T_DIR) {
        panic("dirlookup not DIR");
    }

    for (off = 0; off < dp->size; off += sizeof(de)) {
80023f94:	e51b3008 	ldr	r3, [fp, #-8]
80023f98:	e2833010 	add	r3, r3, #16
80023f9c:	e50b3008 	str	r3, [fp, #-8]
80023fa0:	e51b3020 	ldr	r3, [fp, #-32]	; 0xffffffe0
80023fa4:	e5932018 	ldr	r2, [r3, #24]
80023fa8:	e51b3008 	ldr	r3, [fp, #-8]
80023fac:	e1520003 	cmp	r2, r3
80023fb0:	8affffd0 	bhi	80023ef8 <dirlookup+0x44>
            inum = de.inum;
            return iget(dp->dev, inum);
        }
    }

    return 0;
80023fb4:	e3a03000 	mov	r3, #0
}
80023fb8:	e1a00003 	mov	r0, r3
80023fbc:	e24bd004 	sub	sp, fp, #4
80023fc0:	e8bd8800 	pop	{fp, pc}

80023fc4 <dirlink>:

// Write a new directory entry (name, inum) into the directory dp.
int dirlink (struct inode *dp, char *name, uint inum)
{
80023fc4:	e92d4800 	push	{fp, lr}
80023fc8:	e28db004 	add	fp, sp, #4
80023fcc:	e24dd028 	sub	sp, sp, #40	; 0x28
80023fd0:	e50b0020 	str	r0, [fp, #-32]	; 0xffffffe0
80023fd4:	e50b1024 	str	r1, [fp, #-36]	; 0xffffffdc
80023fd8:	e50b2028 	str	r2, [fp, #-40]	; 0xffffffd8
    int off;
    struct dirent de;
    struct inode *ip;

    // Check that name is not present.
    if ((ip = dirlookup(dp, name, 0)) != 0) {
80023fdc:	e51b0020 	ldr	r0, [fp, #-32]	; 0xffffffe0
80023fe0:	e51b1024 	ldr	r1, [fp, #-36]	; 0xffffffdc
80023fe4:	e3a02000 	mov	r2, #0
80023fe8:	ebffffb1 	bl	80023eb4 <dirlookup>
80023fec:	e50b000c 	str	r0, [fp, #-12]
80023ff0:	e51b300c 	ldr	r3, [fp, #-12]
80023ff4:	e3530000 	cmp	r3, #0
80023ff8:	0a000003 	beq	8002400c <dirlink+0x48>
        iput(ip);
80023ffc:	e51b000c 	ldr	r0, [fp, #-12]
80024000:	ebfffd57 	bl	80023564 <iput>
        return -1;
80024004:	e3e03000 	mvn	r3, #0
80024008:	ea000033 	b	800240dc <dirlink+0x118>
    }

    // Look for an empty dirent.
    for (off = 0; off < dp->size; off += sizeof(de)) {
8002400c:	e3a03000 	mov	r3, #0
80024010:	e50b3008 	str	r3, [fp, #-8]
80024014:	ea000012 	b	80024064 <dirlink+0xa0>
        if (readi(dp, (char*) &de, off, sizeof(de)) != sizeof(de)) {
80024018:	e51b3008 	ldr	r3, [fp, #-8]
8002401c:	e51b0020 	ldr	r0, [fp, #-32]	; 0xffffffe0
80024020:	e24b201c 	sub	r2, fp, #28
80024024:	e1a01002 	mov	r1, r2
80024028:	e1a02003 	mov	r2, r3
8002402c:	e3a03010 	mov	r3, #16
80024030:	ebfffe82 	bl	80023a40 <readi>
80024034:	e1a03000 	mov	r3, r0
80024038:	e3530010 	cmp	r3, #16
8002403c:	0a000002 	beq	8002404c <dirlink+0x88>
            panic("dirlink read");
80024040:	e3090dcc 	movw	r0, #40396	; 0x9dcc
80024044:	e3480002 	movt	r0, #32770	; 0x8002
80024048:	ebfff6db 	bl	80021bbc <panic>
        }

        if (de.inum == 0) {
8002404c:	e15b31bc 	ldrh	r3, [fp, #-28]	; 0xffffffe4
80024050:	e3530000 	cmp	r3, #0
80024054:	0a000008 	beq	8002407c <dirlink+0xb8>
        iput(ip);
        return -1;
    }

    // Look for an empty dirent.
    for (off = 0; off < dp->size; off += sizeof(de)) {
80024058:	e51b3008 	ldr	r3, [fp, #-8]
8002405c:	e2833010 	add	r3, r3, #16
80024060:	e50b3008 	str	r3, [fp, #-8]
80024064:	e51b2008 	ldr	r2, [fp, #-8]
80024068:	e51b3020 	ldr	r3, [fp, #-32]	; 0xffffffe0
8002406c:	e5933018 	ldr	r3, [r3, #24]
80024070:	e1520003 	cmp	r2, r3
80024074:	3affffe7 	bcc	80024018 <dirlink+0x54>
80024078:	ea000000 	b	80024080 <dirlink+0xbc>
        if (readi(dp, (char*) &de, off, sizeof(de)) != sizeof(de)) {
            panic("dirlink read");
        }

        if (de.inum == 0) {
            break;
8002407c:	e1a00000 	nop			; (mov r0, r0)
        }
    }

    strncpy(de.name, name, DIRSIZ);
80024080:	e24b301c 	sub	r3, fp, #28
80024084:	e2833002 	add	r3, r3, #2
80024088:	e1a00003 	mov	r0, r3
8002408c:	e51b1024 	ldr	r1, [fp, #-36]	; 0xffffffdc
80024090:	e3a0200e 	mov	r2, #14
80024094:	ebfff0d6 	bl	800203f4 <strncpy>
    de.inum = inum;
80024098:	e51b3028 	ldr	r3, [fp, #-40]	; 0xffffffd8
8002409c:	e6ff3073 	uxth	r3, r3
800240a0:	e14b31bc 	strh	r3, [fp, #-28]	; 0xffffffe4

    if (writei(dp, (char*) &de, off, sizeof(de)) != sizeof(de)) {
800240a4:	e51b3008 	ldr	r3, [fp, #-8]
800240a8:	e51b0020 	ldr	r0, [fp, #-32]	; 0xffffffe0
800240ac:	e24b201c 	sub	r2, fp, #28
800240b0:	e1a01002 	mov	r1, r2
800240b4:	e1a02003 	mov	r2, r3
800240b8:	e3a03010 	mov	r3, #16
800240bc:	ebfffedd 	bl	80023c38 <writei>
800240c0:	e1a03000 	mov	r3, r0
800240c4:	e3530010 	cmp	r3, #16
800240c8:	0a000002 	beq	800240d8 <dirlink+0x114>
        panic("dirlink");
800240cc:	e3090ddc 	movw	r0, #40412	; 0x9ddc
800240d0:	e3480002 	movt	r0, #32770	; 0x8002
800240d4:	ebfff6b8 	bl	80021bbc <panic>
    }

    return 0;
800240d8:	e3a03000 	mov	r3, #0
}
800240dc:	e1a00003 	mov	r0, r3
800240e0:	e24bd004 	sub	sp, fp, #4
800240e4:	e8bd8800 	pop	{fp, pc}

800240e8 <skipelem>:
//   skipelem("///a//bb", name) = "bb", setting name = "a"
//   skipelem("a", name) = "", setting name = "a"
//   skipelem("", name) = skipelem("////", name) = 0
//
static char* skipelem (char *path, char *name)
{
800240e8:	e92d4800 	push	{fp, lr}
800240ec:	e28db004 	add	fp, sp, #4
800240f0:	e24dd010 	sub	sp, sp, #16
800240f4:	e50b0010 	str	r0, [fp, #-16]
800240f8:	e50b1014 	str	r1, [fp, #-20]	; 0xffffffec
    char *s;
    int len;

    while (*path == '/') {
800240fc:	ea000002 	b	8002410c <skipelem+0x24>
        path++;
80024100:	e51b3010 	ldr	r3, [fp, #-16]
80024104:	e2833001 	add	r3, r3, #1
80024108:	e50b3010 	str	r3, [fp, #-16]
static char* skipelem (char *path, char *name)
{
    char *s;
    int len;

    while (*path == '/') {
8002410c:	e51b3010 	ldr	r3, [fp, #-16]
80024110:	e5d33000 	ldrb	r3, [r3]
80024114:	e353002f 	cmp	r3, #47	; 0x2f
80024118:	0afffff8 	beq	80024100 <skipelem+0x18>
        path++;
    }

    if (*path == 0) {
8002411c:	e51b3010 	ldr	r3, [fp, #-16]
80024120:	e5d33000 	ldrb	r3, [r3]
80024124:	e3530000 	cmp	r3, #0
80024128:	1a000001 	bne	80024134 <skipelem+0x4c>
        return 0;
8002412c:	e3a03000 	mov	r3, #0
80024130:	ea00002c 	b	800241e8 <skipelem+0x100>
    }

    s = path;
80024134:	e51b3010 	ldr	r3, [fp, #-16]
80024138:	e50b3008 	str	r3, [fp, #-8]

    while (*path != '/' && *path != 0) {
8002413c:	ea000002 	b	8002414c <skipelem+0x64>
        path++;
80024140:	e51b3010 	ldr	r3, [fp, #-16]
80024144:	e2833001 	add	r3, r3, #1
80024148:	e50b3010 	str	r3, [fp, #-16]
        return 0;
    }

    s = path;

    while (*path != '/' && *path != 0) {
8002414c:	e51b3010 	ldr	r3, [fp, #-16]
80024150:	e5d33000 	ldrb	r3, [r3]
80024154:	e353002f 	cmp	r3, #47	; 0x2f
80024158:	0a000003 	beq	8002416c <skipelem+0x84>
8002415c:	e51b3010 	ldr	r3, [fp, #-16]
80024160:	e5d33000 	ldrb	r3, [r3]
80024164:	e3530000 	cmp	r3, #0
80024168:	1afffff4 	bne	80024140 <skipelem+0x58>
        path++;
    }

    len = path - s;
8002416c:	e51b2010 	ldr	r2, [fp, #-16]
80024170:	e51b3008 	ldr	r3, [fp, #-8]
80024174:	e0633002 	rsb	r3, r3, r2
80024178:	e50b300c 	str	r3, [fp, #-12]

    if (len >= DIRSIZ) {
8002417c:	e51b300c 	ldr	r3, [fp, #-12]
80024180:	e353000d 	cmp	r3, #13
80024184:	da000004 	ble	8002419c <skipelem+0xb4>
        memmove(name, s, DIRSIZ);
80024188:	e51b0014 	ldr	r0, [fp, #-20]	; 0xffffffec
8002418c:	e51b1008 	ldr	r1, [fp, #-8]
80024190:	e3a0200e 	mov	r2, #14
80024194:	ebfff00f 	bl	800201d8 <memmove>
    } else {
        memmove(name, s, len);
        name[len] = 0;
    }

    while (*path == '/') {
80024198:	ea00000d 	b	800241d4 <skipelem+0xec>
    len = path - s;

    if (len >= DIRSIZ) {
        memmove(name, s, DIRSIZ);
    } else {
        memmove(name, s, len);
8002419c:	e51b300c 	ldr	r3, [fp, #-12]
800241a0:	e51b0014 	ldr	r0, [fp, #-20]	; 0xffffffec
800241a4:	e51b1008 	ldr	r1, [fp, #-8]
800241a8:	e1a02003 	mov	r2, r3
800241ac:	ebfff009 	bl	800201d8 <memmove>
        name[len] = 0;
800241b0:	e51b300c 	ldr	r3, [fp, #-12]
800241b4:	e51b2014 	ldr	r2, [fp, #-20]	; 0xffffffec
800241b8:	e0823003 	add	r3, r2, r3
800241bc:	e3a02000 	mov	r2, #0
800241c0:	e5c32000 	strb	r2, [r3]
    }

    while (*path == '/') {
800241c4:	ea000002 	b	800241d4 <skipelem+0xec>
        path++;
800241c8:	e51b3010 	ldr	r3, [fp, #-16]
800241cc:	e2833001 	add	r3, r3, #1
800241d0:	e50b3010 	str	r3, [fp, #-16]
    } else {
        memmove(name, s, len);
        name[len] = 0;
    }

    while (*path == '/') {
800241d4:	e51b3010 	ldr	r3, [fp, #-16]
800241d8:	e5d33000 	ldrb	r3, [r3]
800241dc:	e353002f 	cmp	r3, #47	; 0x2f
800241e0:	0afffff8 	beq	800241c8 <skipelem+0xe0>
        path++;
    }

    return path;
800241e4:	e51b3010 	ldr	r3, [fp, #-16]
}
800241e8:	e1a00003 	mov	r0, r3
800241ec:	e24bd004 	sub	sp, fp, #4
800241f0:	e8bd8800 	pop	{fp, pc}

800241f4 <namex>:

// Look up and return the inode for a path name.
// If parent != 0, return the inode for the parent and copy the final
// path element into name, which must have room for DIRSIZ bytes.
static struct inode* namex (char *path, int nameiparent, char *name)
{
800241f4:	e92d4800 	push	{fp, lr}
800241f8:	e28db004 	add	fp, sp, #4
800241fc:	e24dd018 	sub	sp, sp, #24
80024200:	e50b0010 	str	r0, [fp, #-16]
80024204:	e50b1014 	str	r1, [fp, #-20]	; 0xffffffec
80024208:	e50b2018 	str	r2, [fp, #-24]	; 0xffffffe8
    struct inode *ip, *next;

    if (*path == '/') {
8002420c:	e51b3010 	ldr	r3, [fp, #-16]
80024210:	e5d33000 	ldrb	r3, [r3]
80024214:	e353002f 	cmp	r3, #47	; 0x2f
80024218:	1a000004 	bne	80024230 <namex+0x3c>
        ip = iget(ROOTDEV, ROOTINO);
8002421c:	e3a00001 	mov	r0, #1
80024220:	e3a01001 	mov	r1, #1
80024224:	ebfffbe0 	bl	800231ac <iget>
80024228:	e50b0008 	str	r0, [fp, #-8]
    } else {
        ip = idup(proc->cwd);
    }

    while ((path = skipelem(path, name)) != 0) {
8002422c:	ea00002d 	b	800242e8 <namex+0xf4>
    struct inode *ip, *next;

    if (*path == '/') {
        ip = iget(ROOTDEV, ROOTINO);
    } else {
        ip = idup(proc->cwd);
80024230:	e30e360c 	movw	r3, #58892	; 0xe60c
80024234:	e348300a 	movt	r3, #32778	; 0x800a
80024238:	e5933000 	ldr	r3, [r3]
8002423c:	e593306c 	ldr	r3, [r3, #108]	; 0x6c
80024240:	e1a00003 	mov	r0, r3
80024244:	ebfffc2a 	bl	800232f4 <idup>
80024248:	e50b0008 	str	r0, [fp, #-8]
    }

    while ((path = skipelem(path, name)) != 0) {
8002424c:	ea000025 	b	800242e8 <namex+0xf4>
        ilock(ip);
80024250:	e51b0008 	ldr	r0, [fp, #-8]
80024254:	ebfffc39 	bl	80023340 <ilock>

        if (ip->type != T_DIR) {
80024258:	e51b3008 	ldr	r3, [fp, #-8]
8002425c:	e1d331b0 	ldrh	r3, [r3, #16]
80024260:	e6bf3073 	sxth	r3, r3
80024264:	e3530001 	cmp	r3, #1
80024268:	0a000003 	beq	8002427c <namex+0x88>
            iunlockput(ip);
8002426c:	e51b0008 	ldr	r0, [fp, #-8]
80024270:	ebfffcf9 	bl	8002365c <iunlockput>
            return 0;
80024274:	e3a03000 	mov	r3, #0
80024278:	ea000029 	b	80024324 <namex+0x130>
        }

        if (nameiparent && *path == '\0') {
8002427c:	e51b3014 	ldr	r3, [fp, #-20]	; 0xffffffec
80024280:	e3530000 	cmp	r3, #0
80024284:	0a000007 	beq	800242a8 <namex+0xb4>
80024288:	e51b3010 	ldr	r3, [fp, #-16]
8002428c:	e5d33000 	ldrb	r3, [r3]
80024290:	e3530000 	cmp	r3, #0
80024294:	1a000003 	bne	800242a8 <namex+0xb4>
            // Stop one level early.
            iunlock(ip);
80024298:	e51b0008 	ldr	r0, [fp, #-8]
8002429c:	ebfffc8e 	bl	800234dc <iunlock>
            return ip;
800242a0:	e51b3008 	ldr	r3, [fp, #-8]
800242a4:	ea00001e 	b	80024324 <namex+0x130>
        }

        if ((next = dirlookup(ip, name, 0)) == 0) {
800242a8:	e51b0008 	ldr	r0, [fp, #-8]
800242ac:	e51b1018 	ldr	r1, [fp, #-24]	; 0xffffffe8
800242b0:	e3a02000 	mov	r2, #0
800242b4:	ebfffefe 	bl	80023eb4 <dirlookup>
800242b8:	e50b000c 	str	r0, [fp, #-12]
800242bc:	e51b300c 	ldr	r3, [fp, #-12]
800242c0:	e3530000 	cmp	r3, #0
800242c4:	1a000003 	bne	800242d8 <namex+0xe4>
            iunlockput(ip);
800242c8:	e51b0008 	ldr	r0, [fp, #-8]
800242cc:	ebfffce2 	bl	8002365c <iunlockput>
            return 0;
800242d0:	e3a03000 	mov	r3, #0
800242d4:	ea000012 	b	80024324 <namex+0x130>
        }

        iunlockput(ip);
800242d8:	e51b0008 	ldr	r0, [fp, #-8]
800242dc:	ebfffcde 	bl	8002365c <iunlockput>
        ip = next;
800242e0:	e51b300c 	ldr	r3, [fp, #-12]
800242e4:	e50b3008 	str	r3, [fp, #-8]
        ip = iget(ROOTDEV, ROOTINO);
    } else {
        ip = idup(proc->cwd);
    }

    while ((path = skipelem(path, name)) != 0) {
800242e8:	e51b0010 	ldr	r0, [fp, #-16]
800242ec:	e51b1018 	ldr	r1, [fp, #-24]	; 0xffffffe8
800242f0:	ebffff7c 	bl	800240e8 <skipelem>
800242f4:	e50b0010 	str	r0, [fp, #-16]
800242f8:	e51b3010 	ldr	r3, [fp, #-16]
800242fc:	e3530000 	cmp	r3, #0
80024300:	1affffd2 	bne	80024250 <namex+0x5c>

        iunlockput(ip);
        ip = next;
    }

    if (nameiparent) {
80024304:	e51b3014 	ldr	r3, [fp, #-20]	; 0xffffffec
80024308:	e3530000 	cmp	r3, #0
8002430c:	0a000003 	beq	80024320 <namex+0x12c>
        iput(ip);
80024310:	e51b0008 	ldr	r0, [fp, #-8]
80024314:	ebfffc92 	bl	80023564 <iput>
        return 0;
80024318:	e3a03000 	mov	r3, #0
8002431c:	ea000000 	b	80024324 <namex+0x130>
    }

    return ip;
80024320:	e51b3008 	ldr	r3, [fp, #-8]
}
80024324:	e1a00003 	mov	r0, r3
80024328:	e24bd004 	sub	sp, fp, #4
8002432c:	e8bd8800 	pop	{fp, pc}

80024330 <namei>:

struct inode* namei (char *path)
{
80024330:	e92d4800 	push	{fp, lr}
80024334:	e28db004 	add	fp, sp, #4
80024338:	e24dd018 	sub	sp, sp, #24
8002433c:	e50b0018 	str	r0, [fp, #-24]	; 0xffffffe8
    char name[DIRSIZ];
    return namex(path, 0, name);
80024340:	e51b0018 	ldr	r0, [fp, #-24]	; 0xffffffe8
80024344:	e3a01000 	mov	r1, #0
80024348:	e24b3014 	sub	r3, fp, #20
8002434c:	e1a02003 	mov	r2, r3
80024350:	ebffffa7 	bl	800241f4 <namex>
80024354:	e1a03000 	mov	r3, r0
}
80024358:	e1a00003 	mov	r0, r3
8002435c:	e24bd004 	sub	sp, fp, #4
80024360:	e8bd8800 	pop	{fp, pc}

80024364 <nameiparent>:

struct inode* nameiparent (char *path, char *name)
{
80024364:	e92d4800 	push	{fp, lr}
80024368:	e28db004 	add	fp, sp, #4
8002436c:	e24dd008 	sub	sp, sp, #8
80024370:	e50b0008 	str	r0, [fp, #-8]
80024374:	e50b100c 	str	r1, [fp, #-12]
    return namex(path, 1, name);
80024378:	e51b0008 	ldr	r0, [fp, #-8]
8002437c:	e3a01001 	mov	r1, #1
80024380:	e51b200c 	ldr	r2, [fp, #-12]
80024384:	ebffff9a 	bl	800241f4 <namex>
80024388:	e1a03000 	mov	r3, r0
}
8002438c:	e1a00003 	mov	r0, r3
80024390:	e24bd004 	sub	sp, fp, #4
80024394:	e8bd8800 	pop	{fp, pc}

80024398 <initlog>:
struct log log;

static void recover_from_log(void);

void initlog(void)
{
80024398:	e92d4800 	push	{fp, lr}
8002439c:	e28db004 	add	fp, sp, #4
800243a0:	e24dd010 	sub	sp, sp, #16

    if (sizeof(struct logheader) >= BSIZE) {
        panic("initlog: too big logheader");
    }

    initlock(&log.lock, "log");
800243a4:	e30e04ac 	movw	r0, #58540	; 0xe4ac
800243a8:	e348000a 	movt	r0, #32778	; 0x800a
800243ac:	e3091de4 	movw	r1, #40420	; 0x9de4
800243b0:	e3481002 	movt	r1, #32770	; 0x8002
800243b4:	eb000723 	bl	80026048 <initlock>
    readsb(ROOTDEV, &sb);
800243b8:	e3a00001 	mov	r0, #1
800243bc:	e24b3014 	sub	r3, fp, #20
800243c0:	e1a01003 	mov	r1, r3
800243c4:	ebfffa00 	bl	80022bcc <readsb>
    log.start = sb.size - sb.nlog;
800243c8:	e51b2014 	ldr	r2, [fp, #-20]	; 0xffffffec
800243cc:	e51b3008 	ldr	r3, [fp, #-8]
800243d0:	e0633002 	rsb	r3, r3, r2
800243d4:	e1a02003 	mov	r2, r3
800243d8:	e30e34ac 	movw	r3, #58540	; 0xe4ac
800243dc:	e348300a 	movt	r3, #32778	; 0x800a
800243e0:	e5832034 	str	r2, [r3, #52]	; 0x34
    log.size = sb.nlog;
800243e4:	e51b3008 	ldr	r3, [fp, #-8]
800243e8:	e1a02003 	mov	r2, r3
800243ec:	e30e34ac 	movw	r3, #58540	; 0xe4ac
800243f0:	e348300a 	movt	r3, #32778	; 0x800a
800243f4:	e5832038 	str	r2, [r3, #56]	; 0x38
    log.dev = ROOTDEV;
800243f8:	e30e34ac 	movw	r3, #58540	; 0xe4ac
800243fc:	e348300a 	movt	r3, #32778	; 0x800a
80024400:	e3a02001 	mov	r2, #1
80024404:	e5832040 	str	r2, [r3, #64]	; 0x40
    recover_from_log();
80024408:	eb0000b2 	bl	800246d8 <recover_from_log>
}
8002440c:	e24bd004 	sub	sp, fp, #4
80024410:	e8bd8800 	pop	{fp, pc}

80024414 <install_trans>:

// Copy committed blocks from log to their home location
static void install_trans(void)
{
80024414:	e92d4800 	push	{fp, lr}
80024418:	e28db004 	add	fp, sp, #4
8002441c:	e24dd010 	sub	sp, sp, #16
    int tail;
    struct buf *lbuf;
    struct buf *dbuf;

    for (tail = 0; tail < log.lh.n; tail++) {
80024420:	e3a03000 	mov	r3, #0
80024424:	e50b3008 	str	r3, [fp, #-8]
80024428:	ea000030 	b	800244f0 <install_trans+0xdc>
        lbuf = bread(log.dev, log.start+tail+1); // read log block
8002442c:	e30e34ac 	movw	r3, #58540	; 0xe4ac
80024430:	e348300a 	movt	r3, #32778	; 0x800a
80024434:	e5933040 	ldr	r3, [r3, #64]	; 0x40
80024438:	e1a02003 	mov	r2, r3
8002443c:	e30e34ac 	movw	r3, #58540	; 0xe4ac
80024440:	e348300a 	movt	r3, #32778	; 0x800a
80024444:	e5931034 	ldr	r1, [r3, #52]	; 0x34
80024448:	e51b3008 	ldr	r3, [fp, #-8]
8002444c:	e0813003 	add	r3, r1, r3
80024450:	e2833001 	add	r3, r3, #1
80024454:	e1a00002 	mov	r0, r2
80024458:	e1a01003 	mov	r1, r3
8002445c:	ebfff1e2 	bl	80020bec <bread>
80024460:	e50b000c 	str	r0, [fp, #-12]
        dbuf = bread(log.dev, log.lh.sector[tail]); // read dst
80024464:	e30e34ac 	movw	r3, #58540	; 0xe4ac
80024468:	e348300a 	movt	r3, #32778	; 0x800a
8002446c:	e5933040 	ldr	r3, [r3, #64]	; 0x40
80024470:	e1a02003 	mov	r2, r3
80024474:	e30e34ac 	movw	r3, #58540	; 0xe4ac
80024478:	e348300a 	movt	r3, #32778	; 0x800a
8002447c:	e51b1008 	ldr	r1, [fp, #-8]
80024480:	e2811010 	add	r1, r1, #16
80024484:	e3a00008 	mov	r0, #8
80024488:	e1a01101 	lsl	r1, r1, #2
8002448c:	e0831001 	add	r1, r3, r1
80024490:	e1a03000 	mov	r3, r0
80024494:	e0813003 	add	r3, r1, r3
80024498:	e5933000 	ldr	r3, [r3]
8002449c:	e1a00002 	mov	r0, r2
800244a0:	e1a01003 	mov	r1, r3
800244a4:	ebfff1d0 	bl	80020bec <bread>
800244a8:	e50b0010 	str	r0, [fp, #-16]

        memmove(dbuf->data, lbuf->data, BSIZE);  // copy block to dst
800244ac:	e51b3010 	ldr	r3, [fp, #-16]
800244b0:	e2832018 	add	r2, r3, #24
800244b4:	e51b300c 	ldr	r3, [fp, #-12]
800244b8:	e2833018 	add	r3, r3, #24
800244bc:	e1a00002 	mov	r0, r2
800244c0:	e1a01003 	mov	r1, r3
800244c4:	e3a02c02 	mov	r2, #512	; 0x200
800244c8:	ebffef42 	bl	800201d8 <memmove>

        bwrite(dbuf);  // write dst to disk
800244cc:	e51b0010 	ldr	r0, [fp, #-16]
800244d0:	ebfff1d9 	bl	80020c3c <bwrite>
        brelse(lbuf);
800244d4:	e51b000c 	ldr	r0, [fp, #-12]
800244d8:	ebfff1ec 	bl	80020c90 <brelse>
        brelse(dbuf);
800244dc:	e51b0010 	ldr	r0, [fp, #-16]
800244e0:	ebfff1ea 	bl	80020c90 <brelse>
{
    int tail;
    struct buf *lbuf;
    struct buf *dbuf;

    for (tail = 0; tail < log.lh.n; tail++) {
800244e4:	e51b3008 	ldr	r3, [fp, #-8]
800244e8:	e2833001 	add	r3, r3, #1
800244ec:	e50b3008 	str	r3, [fp, #-8]
800244f0:	e30e34ac 	movw	r3, #58540	; 0xe4ac
800244f4:	e348300a 	movt	r3, #32778	; 0x800a
800244f8:	e5932044 	ldr	r2, [r3, #68]	; 0x44
800244fc:	e51b3008 	ldr	r3, [fp, #-8]
80024500:	e1520003 	cmp	r2, r3
80024504:	caffffc8 	bgt	8002442c <install_trans+0x18>

        bwrite(dbuf);  // write dst to disk
        brelse(lbuf);
        brelse(dbuf);
    }
}
80024508:	e24bd004 	sub	sp, fp, #4
8002450c:	e8bd8800 	pop	{fp, pc}

80024510 <read_head>:

// Read the log header from disk into the in-memory log header
static void read_head(void)
{
80024510:	e92d4800 	push	{fp, lr}
80024514:	e28db004 	add	fp, sp, #4
80024518:	e24dd010 	sub	sp, sp, #16
    struct buf *buf;
    struct logheader *lh;
    int i;

    buf = bread(log.dev, log.start);
8002451c:	e30e34ac 	movw	r3, #58540	; 0xe4ac
80024520:	e348300a 	movt	r3, #32778	; 0x800a
80024524:	e5933040 	ldr	r3, [r3, #64]	; 0x40
80024528:	e1a02003 	mov	r2, r3
8002452c:	e30e34ac 	movw	r3, #58540	; 0xe4ac
80024530:	e348300a 	movt	r3, #32778	; 0x800a
80024534:	e5933034 	ldr	r3, [r3, #52]	; 0x34
80024538:	e1a00002 	mov	r0, r2
8002453c:	e1a01003 	mov	r1, r3
80024540:	ebfff1a9 	bl	80020bec <bread>
80024544:	e50b000c 	str	r0, [fp, #-12]
    lh = (struct logheader *) (buf->data);
80024548:	e51b300c 	ldr	r3, [fp, #-12]
8002454c:	e2833018 	add	r3, r3, #24
80024550:	e50b3010 	str	r3, [fp, #-16]
    log.lh.n = lh->n;
80024554:	e51b3010 	ldr	r3, [fp, #-16]
80024558:	e5932000 	ldr	r2, [r3]
8002455c:	e30e34ac 	movw	r3, #58540	; 0xe4ac
80024560:	e348300a 	movt	r3, #32778	; 0x800a
80024564:	e5832044 	str	r2, [r3, #68]	; 0x44

    for (i = 0; i < log.lh.n; i++) {
80024568:	e3a03000 	mov	r3, #0
8002456c:	e50b3008 	str	r3, [fp, #-8]
80024570:	ea000014 	b	800245c8 <read_head+0xb8>
        log.lh.sector[i] = lh->sector[i];
80024574:	e51b2010 	ldr	r2, [fp, #-16]
80024578:	e51b3008 	ldr	r3, [fp, #-8]
